(lp0
(dp1
S'sentence'
p2
S'The girl thinks and the boy cries.'
p3
sS'N2_type'
p4
S'full-noun'
p5
sS'V2_type'
p6
S'unergative'
p7
sS'V1_type'
p8
S'mental'
p9
sS'N2_number'
p10
S'singular'
p11
sS'conj'
p12
S'and'
p13
sS'V2_number'
p14
g11
sS'N1_number'
p15
g11
sS'feature_vec'
p16
(lp17
I2
aI1
aI2
aI1
aI1
aI2
aI1
aI2
aI1
aI1
aI2
aI1
aI2
asS'N1_gender'
p18
S'female'
p19
sS'N1_type'
p20
g5
sS'V1_number'
p21
g11
sS'V2_tense'
p22
S'present'
p23
sS'N2_gender'
p24
S'male'
p25
sS'V1_tense'
p26
g23
sa(dp27
g2
S'The man believes that the girl cries.'
p28
sg4
g5
sg6
g7
sg8
g9
sg10
g11
sg12
S'that'
p29
sg14
g11
sg15
g11
sg16
(lp30
I2
aI1
aI1
aI1
aI1
aI2
aI2
aI2
aI1
aI2
aI2
aI1
aI2
asg18
g25
sg20
g5
sg21
g11
sg22
g23
sg24
g19
sg26
g23
sa(dp31
g2
S'The woman thinks that the man sneezes.'
p32
sg4
g5
sg6
g7
sg8
g9
sg10
g11
sg12
g29
sg14
g11
sg15
g11
sg16
(lp33
I2
aI1
aI2
aI1
aI1
aI2
aI2
aI2
aI1
aI1
aI2
aI1
aI2
asg18
g19
sg20
g5
sg21
g11
sg22
g23
sg24
g25
sg26
g23
sa(dp34
g2
S'The girl knows and the man sneezes.'
p35
sg4
g5
sg6
g7
sg8
g9
sg10
g11
sg12
g13
sg14
g11
sg15
g11
sg16
(lp36
I2
aI1
aI2
aI1
aI1
aI2
aI1
aI2
aI1
aI1
aI2
aI1
aI2
asg18
g19
sg20
g5
sg21
g11
sg22
g23
sg24
g25
sg26
g23
sa(dp37
g2
S'The boys think that they cry.'
p38
sg4
S'pronoun'
p39
sg6
g7
sg8
g9
sg10
S'plural'
p40
sg12
g29
sg14
g40
sg15
g40
sg16
(lp41
I2
aI2
aI1
aI1
aI2
aI2
aI2
aI1
aI2
aI0
aI2
aI2
aI2
asg18
g25
sg20
g5
sg21
g40
sg22
g23
sg24
S''
p42
sg26
g23
sa(dp43
g2
S'She knows and the man cries.'
p44
sg4
g5
sg6
g7
sg8
g9
sg10
g11
sg12
g13
sg14
g11
sg15
g11
sg16
(lp45
I1
aI1
aI2
aI1
aI1
aI2
aI1
aI2
aI1
aI1
aI2
aI1
aI2
asg18
g19
sg20
g39
sg21
g11
sg22
g23
sg24
g25
sg26
g23
sa(dp46
g2
S'The man believes that the men cry.'
p47
sg4
g5
sg6
g7
sg8
g9
sg10
g40
sg12
g29
sg14
g40
sg15
g11
sg16
(lp48
I2
aI1
aI1
aI1
aI1
aI2
aI2
aI2
aI2
aI1
aI2
aI2
aI2
asg18
g25
sg20
g5
sg21
g11
sg22
g23
sg24
g25
sg26
g23
sa(dp49
g2
S'The boy knows that she cries.'
p50
sg4
g39
sg6
g7
sg8
g9
sg10
g11
sg12
g29
sg14
g11
sg15
g11
sg16
(lp51
I2
aI1
aI1
aI1
aI1
aI2
aI2
aI1
aI1
aI2
aI2
aI1
aI2
asg18
g25
sg20
g5
sg21
g11
sg22
g23
sg24
g19
sg26
g23
sa(dp52
g2
S'She believes that the man cries.'
p53
sg4
g5
sg6
g7
sg8
g9
sg10
g11
sg12
g29
sg14
g11
sg15
g11
sg16
(lp54
I1
aI1
aI2
aI1
aI1
aI2
aI2
aI2
aI1
aI1
aI2
aI1
aI2
asg18
g19
sg20
g39
sg21
g11
sg22
g23
sg24
g25
sg26
g23
sa(dp55
g2
S'The boy believes and he sneezes.'
p56
sg4
g39
sg6
g7
sg8
g9
sg10
g11
sg12
g13
sg14
g11
sg15
g11
sg16
(lp57
I2
aI1
aI1
aI1
aI1
aI2
aI1
aI1
aI1
aI1
aI2
aI1
aI2
asg18
g25
sg20
g5
sg21
g11
sg22
g23
sg24
g25
sg26
g23
sa(dp58
g2
S'He believes that the boy cries.'
p59
sg4
g5
sg6
g7
sg8
g9
sg10
g11
sg12
g29
sg14
g11
sg15
g11
sg16
(lp60
I1
aI1
aI1
aI1
aI1
aI2
aI2
aI2
aI1
aI1
aI2
aI1
aI2
asg18
g25
sg20
g39
sg21
g11
sg22
g23
sg24
g25
sg26
g23
sa(dp61
g2
S'They know that the boys sneeze.'
p62
sg4
g5
sg6
g7
sg8
g9
sg10
g40
sg12
g29
sg14
g40
sg15
g40
sg16
(lp63
I1
aI2
aI0
aI1
aI2
aI2
aI2
aI2
aI2
aI1
aI2
aI2
aI2
asg18
g42
sg20
g39
sg21
g40
sg22
g23
sg24
g25
sg26
g23
sa(dp64
g2
S'They believe and the man cries.'
p65
sg4
g5
sg6
g7
sg8
g9
sg10
g11
sg12
g13
sg14
g11
sg15
g40
sg16
(lp66
I1
aI2
aI0
aI1
aI2
aI2
aI1
aI2
aI1
aI1
aI2
aI1
aI2
asg18
g42
sg20
g39
sg21
g40
sg22
g23
sg24
g25
sg26
g23
sa(dp67
g2
S'The boys think and the woman cries.'
p68
sg4
g5
sg6
g7
sg8
g9
sg10
g11
sg12
g13
sg14
g11
sg15
g40
sg16
(lp69
I2
aI2
aI1
aI1
aI2
aI2
aI1
aI2
aI1
aI2
aI2
aI1
aI2
asg18
g25
sg20
g5
sg21
g40
sg22
g23
sg24
g19
sg26
g23
sa(dp70
g2
S'The girl thinks that the man sneezes.'
p71
sg4
g5
sg6
g7
sg8
g9
sg10
g11
sg12
g29
sg14
g11
sg15
g11
sg16
(lp72
I2
aI1
aI2
aI1
aI1
aI2
aI2
aI2
aI1
aI1
aI2
aI1
aI2
asg18
g19
sg20
g5
sg21
g11
sg22
g23
sg24
g25
sg26
g23
sa(dp73
g2
S'The women know and he cries.'
p74
sg4
g39
sg6
g7
sg8
g9
sg10
g11
sg12
g13
sg14
g11
sg15
g40
sg16
(lp75
I2
aI2
aI2
aI1
aI2
aI2
aI1
aI1
aI1
aI1
aI2
aI1
aI2
asg18
g19
sg20
g5
sg21
g40
sg22
g23
sg24
g25
sg26
g23
sa(dp76
g2
S'The men know that the woman cries.'
p77
sg4
g5
sg6
g7
sg8
g9
sg10
g11
sg12
g29
sg14
g11
sg15
g40
sg16
(lp78
I2
aI2
aI1
aI1
aI2
aI2
aI2
aI2
aI1
aI2
aI2
aI1
aI2
asg18
g25
sg20
g5
sg21
g40
sg22
g23
sg24
g19
sg26
g23
sa(dp79
g2
S'He believes and the boys sneeze.'
p80
sg4
g5
sg6
g7
sg8
g9
sg10
g40
sg12
g13
sg14
g40
sg15
g11
sg16
(lp81
I1
aI1
aI1
aI1
aI1
aI2
aI1
aI2
aI2
aI1
aI2
aI2
aI2
asg18
g25
sg20
g39
sg21
g11
sg22
g23
sg24
g25
sg26
g23
sa(dp82
g2
S'The woman knows and she cries.'
p83
sg4
g39
sg6
g7
sg8
g9
sg10
g11
sg12
g13
sg14
g11
sg15
g11
sg16
(lp84
I2
aI1
aI2
aI1
aI1
aI2
aI1
aI1
aI1
aI2
aI2
aI1
aI2
asg18
g19
sg20
g5
sg21
g11
sg22
g23
sg24
g19
sg26
g23
sa(dp85
g2
S'The boys think that the women sneeze.'
p86
sg4
g5
sg6
g7
sg8
g9
sg10
g40
sg12
g29
sg14
g40
sg15
g40
sg16
(lp87
I2
aI2
aI1
aI1
aI2
aI2
aI2
aI2
aI2
aI2
aI2
aI2
aI2
asg18
g25
sg20
g5
sg21
g40
sg22
g23
sg24
g19
sg26
g23
sa(dp88
g2
S'He thinks that the men sneeze.'
p89
sg4
g5
sg6
g7
sg8
g9
sg10
g40
sg12
g29
sg14
g40
sg15
g11
sg16
(lp90
I1
aI1
aI1
aI1
aI1
aI2
aI2
aI2
aI2
aI1
aI2
aI2
aI2
asg18
g25
sg20
g39
sg21
g11
sg22
g23
sg24
g25
sg26
g23
sa(dp91
g2
S'The girl knows that the woman sneezes.'
p92
sg4
g5
sg6
g7
sg8
g9
sg10
g11
sg12
g29
sg14
g11
sg15
g11
sg16
(lp93
I2
aI1
aI2
aI1
aI1
aI2
aI2
aI2
aI1
aI2
aI2
aI1
aI2
asg18
g19
sg20
g5
sg21
g11
sg22
g23
sg24
g19
sg26
g23
sa(dp94
g2
S'The woman thinks and he sneezes.'
p95
sg4
g39
sg6
g7
sg8
g9
sg10
g11
sg12
g13
sg14
g11
sg15
g11
sg16
(lp96
I2
aI1
aI2
aI1
aI1
aI2
aI1
aI1
aI1
aI1
aI2
aI1
aI2
asg18
g19
sg20
g5
sg21
g11
sg22
g23
sg24
g25
sg26
g23
sa(dp97
g2
S'They think that she sneezes.'
p98
sg4
g39
sg6
g7
sg8
g9
sg10
g11
sg12
g29
sg14
g11
sg15
g40
sg16
(lp99
I1
aI2
aI0
aI1
aI2
aI2
aI2
aI1
aI1
aI2
aI2
aI1
aI2
asg18
g42
sg20
g39
sg21
g40
sg22
g23
sg24
g19
sg26
g23
sa(dp100
g2
S'She knows that the girl cries.'
p101
sg4
g5
sg6
g7
sg8
g9
sg10
g11
sg12
g29
sg14
g11
sg15
g11
sg16
(lp102
I1
aI1
aI2
aI1
aI1
aI2
aI2
aI2
aI1
aI2
aI2
aI1
aI2
asg18
g19
sg20
g39
sg21
g11
sg22
g23
sg24
g19
sg26
g23
sa(dp103
g2
S'The man believes and they cry.'
p104
sg4
g39
sg6
g7
sg8
g9
sg10
g40
sg12
g13
sg14
g40
sg15
g11
sg16
(lp105
I2
aI1
aI1
aI1
aI1
aI2
aI1
aI1
aI2
aI0
aI2
aI2
aI2
asg18
g25
sg20
g5
sg21
g11
sg22
g23
sg24
g42
sg26
g23
sa(dp106
g2
S'The men think that they cry.'
p107
sg4
g39
sg6
g7
sg8
g9
sg10
g40
sg12
g29
sg14
g40
sg15
g40
sg16
(lp108
I2
aI2
aI1
aI1
aI2
aI2
aI2
aI1
aI2
aI0
aI2
aI2
aI2
asg18
g25
sg20
g5
sg21
g40
sg22
g23
sg24
g42
sg26
g23
sa(dp109
g2
S'The boy thinks that the man sneezes.'
p110
sg4
g5
sg6
g7
sg8
g9
sg10
g11
sg12
g29
sg14
g11
sg15
g11
sg16
(lp111
I2
aI1
aI1
aI1
aI1
aI2
aI2
aI2
aI1
aI1
aI2
aI1
aI2
asg18
g25
sg20
g5
sg21
g11
sg22
g23
sg24
g25
sg26
g23
sa(dp112
g2
S'The women believe that the woman sneezes.'
p113
sg4
g5
sg6
g7
sg8
g9
sg10
g11
sg12
g29
sg14
g11
sg15
g40
sg16
(lp114
I2
aI2
aI2
aI1
aI2
aI2
aI2
aI2
aI1
aI2
aI2
aI1
aI2
asg18
g19
sg20
g5
sg21
g40
sg22
g23
sg24
g19
sg26
g23
sa(dp115
g2
S'The boys think that the woman sneezes.'
p116
sg4
g5
sg6
g7
sg8
g9
sg10
g11
sg12
g29
sg14
g11
sg15
g40
sg16
(lp117
I2
aI2
aI1
aI1
aI2
aI2
aI2
aI2
aI1
aI2
aI2
aI1
aI2
asg18
g25
sg20
g5
sg21
g40
sg22
g23
sg24
g19
sg26
g23
sa(dp118
g2
S'They know and the woman cries.'
p119
sg4
g5
sg6
g7
sg8
g9
sg10
g11
sg12
g13
sg14
g11
sg15
g40
sg16
(lp120
I1
aI2
aI0
aI1
aI2
aI2
aI1
aI2
aI1
aI2
aI2
aI1
aI2
asg18
g42
sg20
g39
sg21
g40
sg22
g23
sg24
g19
sg26
g23
sa(dp121
g2
S'The man knows that the girl cries.'
p122
sg4
g5
sg6
g7
sg8
g9
sg10
g11
sg12
g29
sg14
g11
sg15
g11
sg16
(lp123
I2
aI1
aI1
aI1
aI1
aI2
aI2
aI2
aI1
aI2
aI2
aI1
aI2
asg18
g25
sg20
g5
sg21
g11
sg22
g23
sg24
g19
sg26
g23
sa(dp124
g2
S'They believe and the women cry.'
p125
sg4
g5
sg6
g7
sg8
g9
sg10
g40
sg12
g13
sg14
g40
sg15
g40
sg16
(lp126
I1
aI2
aI0
aI1
aI2
aI2
aI1
aI2
aI2
aI2
aI2
aI2
aI2
asg18
g42
sg20
g39
sg21
g40
sg22
g23
sg24
g19
sg26
g23
sa(dp127
g2
S'She thinks that he sneezes.'
p128
sg4
g39
sg6
g7
sg8
g9
sg10
g11
sg12
g29
sg14
g11
sg15
g11
sg16
(lp129
I1
aI1
aI2
aI1
aI1
aI2
aI2
aI1
aI1
aI1
aI2
aI1
aI2
asg18
g19
sg20
g39
sg21
g11
sg22
g23
sg24
g25
sg26
g23
sa(dp130
g2
S'The women think and he cries.'
p131
sg4
g39
sg6
g7
sg8
g9
sg10
g11
sg12
g13
sg14
g11
sg15
g40
sg16
(lp132
I2
aI2
aI2
aI1
aI2
aI2
aI1
aI1
aI1
aI1
aI2
aI1
aI2
asg18
g19
sg20
g5
sg21
g40
sg22
g23
sg24
g25
sg26
g23
sa(dp133
g2
S'They know and he cries.'
p134
sg4
g39
sg6
g7
sg8
g9
sg10
g11
sg12
g13
sg14
g11
sg15
g40
sg16
(lp135
I1
aI2
aI0
aI1
aI2
aI2
aI1
aI1
aI1
aI1
aI2
aI1
aI2
asg18
g42
sg20
g39
sg21
g40
sg22
g23
sg24
g25
sg26
g23
sa(dp136
g2
S'The woman knows and she sneezes.'
p137
sg4
g39
sg6
g7
sg8
g9
sg10
g11
sg12
g13
sg14
g11
sg15
g11
sg16
(lp138
I2
aI1
aI2
aI1
aI1
aI2
aI1
aI1
aI1
aI2
aI2
aI1
aI2
asg18
g19
sg20
g5
sg21
g11
sg22
g23
sg24
g19
sg26
g23
sa(dp139
g2
S'The boys know and he cries.'
p140
sg4
g39
sg6
g7
sg8
g9
sg10
g11
sg12
g13
sg14
g11
sg15
g40
sg16
(lp141
I2
aI2
aI1
aI1
aI2
aI2
aI1
aI1
aI1
aI1
aI2
aI1
aI2
asg18
g25
sg20
g5
sg21
g40
sg22
g23
sg24
g25
sg26
g23
sa(dp142
g2
S'The girl believes and the man cries.'
p143
sg4
g5
sg6
g7
sg8
g9
sg10
g11
sg12
g13
sg14
g11
sg15
g11
sg16
(lp144
I2
aI1
aI2
aI1
aI1
aI2
aI1
aI2
aI1
aI1
aI2
aI1
aI2
asg18
g19
sg20
g5
sg21
g11
sg22
g23
sg24
g25
sg26
g23
sa(dp145
g2
S'He believes that the boy sneezes.'
p146
sg4
g5
sg6
g7
sg8
g9
sg10
g11
sg12
g29
sg14
g11
sg15
g11
sg16
(lp147
I1
aI1
aI1
aI1
aI1
aI2
aI2
aI2
aI1
aI1
aI2
aI1
aI2
asg18
g25
sg20
g39
sg21
g11
sg22
g23
sg24
g25
sg26
g23
sa(dp148
g2
S'The boy knows and the boys sneeze.'
p149
sg4
g5
sg6
g7
sg8
g9
sg10
g40
sg12
g13
sg14
g40
sg15
g11
sg16
(lp150
I2
aI1
aI1
aI1
aI1
aI2
aI1
aI2
aI2
aI1
aI2
aI2
aI2
asg18
g25
sg20
g5
sg21
g11
sg22
g23
sg24
g25
sg26
g23
sa(dp151
g2
S'The woman knows and the boys cry.'
p152
sg4
g5
sg6
g7
sg8
g9
sg10
g40
sg12
g13
sg14
g40
sg15
g11
sg16
(lp153
I2
aI1
aI2
aI1
aI1
aI2
aI1
aI2
aI2
aI1
aI2
aI2
aI2
asg18
g19
sg20
g5
sg21
g11
sg22
g23
sg24
g25
sg26
g23
sa(dp154
g2
S'The boy believes that the men sneeze.'
p155
sg4
g5
sg6
g7
sg8
g9
sg10
g40
sg12
g29
sg14
g40
sg15
g11
sg16
(lp156
I2
aI1
aI1
aI1
aI1
aI2
aI2
aI2
aI2
aI1
aI2
aI2
aI2
asg18
g25
sg20
g5
sg21
g11
sg22
g23
sg24
g25
sg26
g23
sa(dp157
g2
S'He knows and the girl sneezes.'
p158
sg4
g5
sg6
g7
sg8
g9
sg10
g11
sg12
g13
sg14
g11
sg15
g11
sg16
(lp159
I1
aI1
aI1
aI1
aI1
aI2
aI1
aI2
aI1
aI2
aI2
aI1
aI2
asg18
g25
sg20
g39
sg21
g11
sg22
g23
sg24
g19
sg26
g23
sa(dp160
g2
S'They think that the men sneeze.'
p161
sg4
g5
sg6
g7
sg8
g9
sg10
g40
sg12
g29
sg14
g40
sg15
g40
sg16
(lp162
I1
aI2
aI0
aI1
aI2
aI2
aI2
aI2
aI2
aI1
aI2
aI2
aI2
asg18
g42
sg20
g39
sg21
g40
sg22
g23
sg24
g25
sg26
g23
sa(dp163
g2
S'The boys believe and the girl cries.'
p164
sg4
g5
sg6
g7
sg8
g9
sg10
g11
sg12
g13
sg14
g11
sg15
g40
sg16
(lp165
I2
aI2
aI1
aI1
aI2
aI2
aI1
aI2
aI1
aI2
aI2
aI1
aI2
asg18
g25
sg20
g5
sg21
g40
sg22
g23
sg24
g19
sg26
g23
sa(dp166
g2
S'The boy thinks and he cries.'
p167
sg4
g39
sg6
g7
sg8
g9
sg10
g11
sg12
g13
sg14
g11
sg15
g11
sg16
(lp168
I2
aI1
aI1
aI1
aI1
aI2
aI1
aI1
aI1
aI1
aI2
aI1
aI2
asg18
g25
sg20
g5
sg21
g11
sg22
g23
sg24
g25
sg26
g23
sa(dp169
g2
S'She believes that they sneeze.'
p170
sg4
g39
sg6
g7
sg8
g9
sg10
g40
sg12
g29
sg14
g40
sg15
g11
sg16
(lp171
I1
aI1
aI2
aI1
aI1
aI2
aI2
aI1
aI2
aI0
aI2
aI2
aI2
asg18
g19
sg20
g39
sg21
g11
sg22
g23
sg24
g42
sg26
g23
sa(dp172
g2
S'The woman believes and the girl sneezes.'
p173
sg4
g5
sg6
g7
sg8
g9
sg10
g11
sg12
g13
sg14
g11
sg15
g11
sg16
(lp174
I2
aI1
aI2
aI1
aI1
aI2
aI1
aI2
aI1
aI2
aI2
aI1
aI2
asg18
g19
sg20
g5
sg21
g11
sg22
g23
sg24
g19
sg26
g23
sa(dp175
g2
S'The boys think and the boy cries.'
p176
sg4
g5
sg6
g7
sg8
g9
sg10
g11
sg12
g13
sg14
g11
sg15
g40
sg16
(lp177
I2
aI2
aI1
aI1
aI2
aI2
aI1
aI2
aI1
aI1
aI2
aI1
aI2
asg18
g25
sg20
g5
sg21
g40
sg22
g23
sg24
g25
sg26
g23
sa(dp178
g2
S'The boy believes and he cries.'
p179
sg4
g39
sg6
g7
sg8
g9
sg10
g11
sg12
g13
sg14
g11
sg15
g11
sg16
(lp180
I2
aI1
aI1
aI1
aI1
aI2
aI1
aI1
aI1
aI1
aI2
aI1
aI2
asg18
g25
sg20
g5
sg21
g11
sg22
g23
sg24
g25
sg26
g23
sa(dp181
g2
S'The boys believe that the man sneezes.'
p182
sg4
g5
sg6
g7
sg8
g9
sg10
g11
sg12
g29
sg14
g11
sg15
g40
sg16
(lp183
I2
aI2
aI1
aI1
aI2
aI2
aI2
aI2
aI1
aI1
aI2
aI1
aI2
asg18
g25
sg20
g5
sg21
g40
sg22
g23
sg24
g25
sg26
g23
sa(dp184
g2
S'The boys think and he sneezes.'
p185
sg4
g39
sg6
g7
sg8
g9
sg10
g11
sg12
g13
sg14
g11
sg15
g40
sg16
(lp186
I2
aI2
aI1
aI1
aI2
aI2
aI1
aI1
aI1
aI1
aI2
aI1
aI2
asg18
g25
sg20
g5
sg21
g40
sg22
g23
sg24
g25
sg26
g23
sa(dp187
g2
S'The boy believes that the woman cries.'
p188
sg4
g5
sg6
g7
sg8
g9
sg10
g11
sg12
g29
sg14
g11
sg15
g11
sg16
(lp189
I2
aI1
aI1
aI1
aI1
aI2
aI2
aI2
aI1
aI2
aI2
aI1
aI2
asg18
g25
sg20
g5
sg21
g11
sg22
g23
sg24
g19
sg26
g23
sa(dp190
g2
S'The girl knows and the girl cries.'
p191
sg4
g5
sg6
g7
sg8
g9
sg10
g11
sg12
g13
sg14
g11
sg15
g11
sg16
(lp192
I2
aI1
aI2
aI1
aI1
aI2
aI1
aI2
aI1
aI2
aI2
aI1
aI2
asg18
g19
sg20
g5
sg21
g11
sg22
g23
sg24
g19
sg26
g23
sa(dp193
g2
S'The girl thinks and the boys cry.'
p194
sg4
g5
sg6
g7
sg8
g9
sg10
g40
sg12
g13
sg14
g40
sg15
g11
sg16
(lp195
I2
aI1
aI2
aI1
aI1
aI2
aI1
aI2
aI2
aI1
aI2
aI2
aI2
asg18
g19
sg20
g5
sg21
g11
sg22
g23
sg24
g25
sg26
g23
sa(dp196
g2
S'They think and the men cry.'
p197
sg4
g5
sg6
g7
sg8
g9
sg10
g40
sg12
g13
sg14
g40
sg15
g40
sg16
(lp198
I1
aI2
aI0
aI1
aI2
aI2
aI1
aI2
aI2
aI1
aI2
aI2
aI2
asg18
g42
sg20
g39
sg21
g40
sg22
g23
sg24
g25
sg26
g23
sa(dp199
g2
S'The men think that the women sneeze.'
p200
sg4
g5
sg6
g7
sg8
g9
sg10
g40
sg12
g29
sg14
g40
sg15
g40
sg16
(lp201
I2
aI2
aI1
aI1
aI2
aI2
aI2
aI2
aI2
aI2
aI2
aI2
aI2
asg18
g25
sg20
g5
sg21
g40
sg22
g23
sg24
g19
sg26
g23
sa(dp202
g2
S'She thinks that the women sneeze.'
p203
sg4
g5
sg6
g7
sg8
g9
sg10
g40
sg12
g29
sg14
g40
sg15
g11
sg16
(lp204
I1
aI1
aI2
aI1
aI1
aI2
aI2
aI2
aI2
aI2
aI2
aI2
aI2
asg18
g19
sg20
g39
sg21
g11
sg22
g23
sg24
g19
sg26
g23
sa(dp205
g2
S'The boy believes and they sneeze.'
p206
sg4
g39
sg6
g7
sg8
g9
sg10
g40
sg12
g13
sg14
g40
sg15
g11
sg16
(lp207
I2
aI1
aI1
aI1
aI1
aI2
aI1
aI1
aI2
aI0
aI2
aI2
aI2
asg18
g25
sg20
g5
sg21
g11
sg22
g23
sg24
g42
sg26
g23
sa(dp208
g2
S'The boys know and the boy cries.'
p209
sg4
g5
sg6
g7
sg8
g9
sg10
g11
sg12
g13
sg14
g11
sg15
g40
sg16
(lp210
I2
aI2
aI1
aI1
aI2
aI2
aI1
aI2
aI1
aI1
aI2
aI1
aI2
asg18
g25
sg20
g5
sg21
g40
sg22
g23
sg24
g25
sg26
g23
sa(dp211
g2
S'The girl knows that they sneeze.'
p212
sg4
g39
sg6
g7
sg8
g9
sg10
g40
sg12
g29
sg14
g40
sg15
g11
sg16
(lp213
I2
aI1
aI2
aI1
aI1
aI2
aI2
aI1
aI2
aI0
aI2
aI2
aI2
asg18
g19
sg20
g5
sg21
g11
sg22
g23
sg24
g42
sg26
g23
sa(dp214
g2
S'The woman believes that she cries.'
p215
sg4
g39
sg6
g7
sg8
g9
sg10
g11
sg12
g29
sg14
g11
sg15
g11
sg16
(lp216
I2
aI1
aI2
aI1
aI1
aI2
aI2
aI1
aI1
aI2
aI2
aI1
aI2
asg18
g19
sg20
g5
sg21
g11
sg22
g23
sg24
g19
sg26
g23
sa(dp217
g2
S'The boy thinks and the women cry.'
p218
sg4
g5
sg6
g7
sg8
g9
sg10
g40
sg12
g13
sg14
g40
sg15
g11
sg16
(lp219
I2
aI1
aI1
aI1
aI1
aI2
aI1
aI2
aI2
aI2
aI2
aI2
aI2
asg18
g25
sg20
g5
sg21
g11
sg22
g23
sg24
g19
sg26
g23
sa(dp220
g2
S'She believes that the woman cries.'
p221
sg4
g5
sg6
g7
sg8
g9
sg10
g11
sg12
g29
sg14
g11
sg15
g11
sg16
(lp222
I1
aI1
aI2
aI1
aI1
aI2
aI2
aI2
aI1
aI2
aI2
aI1
aI2
asg18
g19
sg20
g39
sg21
g11
sg22
g23
sg24
g19
sg26
g23
sa(dp223
g2
S'The woman thinks and the women sneeze.'
p224
sg4
g5
sg6
g7
sg8
g9
sg10
g40
sg12
g13
sg14
g40
sg15
g11
sg16
(lp225
I2
aI1
aI2
aI1
aI1
aI2
aI1
aI2
aI2
aI2
aI2
aI2
aI2
asg18
g19
sg20
g5
sg21
g11
sg22
g23
sg24
g19
sg26
g23
sa(dp226
g2
S'The boys believe and the boys cry.'
p227
sg4
g5
sg6
g7
sg8
g9
sg10
g40
sg12
g13
sg14
g40
sg15
g40
sg16
(lp228
I2
aI2
aI1
aI1
aI2
aI2
aI1
aI2
aI2
aI1
aI2
aI2
aI2
asg18
g25
sg20
g5
sg21
g40
sg22
g23
sg24
g25
sg26
g23
sa(dp229
g2
S'She thinks that he cries.'
p230
sg4
g39
sg6
g7
sg8
g9
sg10
g11
sg12
g29
sg14
g11
sg15
g11
sg16
(lp231
I1
aI1
aI2
aI1
aI1
aI2
aI2
aI1
aI1
aI1
aI2
aI1
aI2
asg18
g19
sg20
g39
sg21
g11
sg22
g23
sg24
g25
sg26
g23
sa(dp232
g2
S'They know and the men sneeze.'
p233
sg4
g5
sg6
g7
sg8
g9
sg10
g40
sg12
g13
sg14
g40
sg15
g40
sg16
(lp234
I1
aI2
aI0
aI1
aI2
aI2
aI1
aI2
aI2
aI1
aI2
aI2
aI2
asg18
g42
sg20
g39
sg21
g40
sg22
g23
sg24
g25
sg26
g23
sa(dp235
g2
S'They believe and they sneeze.'
p236
sg4
g39
sg6
g7
sg8
g9
sg10
g40
sg12
g13
sg14
g40
sg15
g40
sg16
(lp237
I1
aI2
aI0
aI1
aI2
aI2
aI1
aI1
aI2
aI0
aI2
aI2
aI2
asg18
g42
sg20
g39
sg21
g40
sg22
g23
sg24
g42
sg26
g23
sa(dp238
g2
S'The girl believes and she sneezes.'
p239
sg4
g39
sg6
g7
sg8
g9
sg10
g11
sg12
g13
sg14
g11
sg15
g11
sg16
(lp240
I2
aI1
aI2
aI1
aI1
aI2
aI1
aI1
aI1
aI2
aI2
aI1
aI2
asg18
g19
sg20
g5
sg21
g11
sg22
g23
sg24
g19
sg26
g23
sa(dp241
g2
S'She knows that the girl sneezes.'
p242
sg4
g5
sg6
g7
sg8
g9
sg10
g11
sg12
g29
sg14
g11
sg15
g11
sg16
(lp243
I1
aI1
aI2
aI1
aI1
aI2
aI2
aI2
aI1
aI2
aI2
aI1
aI2
asg18
g19
sg20
g39
sg21
g11
sg22
g23
sg24
g19
sg26
g23
sa(dp244
g2
S'The men believe and she cries.'
p245
sg4
g39
sg6
g7
sg8
g9
sg10
g11
sg12
g13
sg14
g11
sg15
g40
sg16
(lp246
I2
aI2
aI1
aI1
aI2
aI2
aI1
aI1
aI1
aI2
aI2
aI1
aI2
asg18
g25
sg20
g5
sg21
g40
sg22
g23
sg24
g19
sg26
g23
sa(dp247
g2
S'The boys believe that the woman cries.'
p248
sg4
g5
sg6
g7
sg8
g9
sg10
g11
sg12
g29
sg14
g11
sg15
g40
sg16
(lp249
I2
aI2
aI1
aI1
aI2
aI2
aI2
aI2
aI1
aI2
aI2
aI1
aI2
asg18
g25
sg20
g5
sg21
g40
sg22
g23
sg24
g19
sg26
g23
sa(dp250
g2
S'The boy believes and the woman cries.'
p251
sg4
g5
sg6
g7
sg8
g9
sg10
g11
sg12
g13
sg14
g11
sg15
g11
sg16
(lp252
I2
aI1
aI1
aI1
aI1
aI2
aI1
aI2
aI1
aI2
aI2
aI1
aI2
asg18
g25
sg20
g5
sg21
g11
sg22
g23
sg24
g19
sg26
g23
sa(dp253
g2
S'The women know that the boys sneeze.'
p254
sg4
g5
sg6
g7
sg8
g9
sg10
g40
sg12
g29
sg14
g40
sg15
g40
sg16
(lp255
I2
aI2
aI2
aI1
aI2
aI2
aI2
aI2
aI2
aI1
aI2
aI2
aI2
asg18
g19
sg20
g5
sg21
g40
sg22
g23
sg24
g25
sg26
g23
sa(dp256
g2
S'The men believe and the man cries.'
p257
sg4
g5
sg6
g7
sg8
g9
sg10
g11
sg12
g13
sg14
g11
sg15
g40
sg16
(lp258
I2
aI2
aI1
aI1
aI2
aI2
aI1
aI2
aI1
aI1
aI2
aI1
aI2
asg18
g25
sg20
g5
sg21
g40
sg22
g23
sg24
g25
sg26
g23
sa(dp259
g2
S'The boy thinks and the girl sneezes.'
p260
sg4
g5
sg6
g7
sg8
g9
sg10
g11
sg12
g13
sg14
g11
sg15
g11
sg16
(lp261
I2
aI1
aI1
aI1
aI1
aI2
aI1
aI2
aI1
aI2
aI2
aI1
aI2
asg18
g25
sg20
g5
sg21
g11
sg22
g23
sg24
g19
sg26
g23
sa(dp262
g2
S'The girl thinks and the girl sneezes.'
p263
sg4
g5
sg6
g7
sg8
g9
sg10
g11
sg12
g13
sg14
g11
sg15
g11
sg16
(lp264
I2
aI1
aI2
aI1
aI1
aI2
aI1
aI2
aI1
aI2
aI2
aI1
aI2
asg18
g19
sg20
g5
sg21
g11
sg22
g23
sg24
g19
sg26
g23
sa(dp265
g2
S'The men think that the women cry.'
p266
sg4
g5
sg6
g7
sg8
g9
sg10
g40
sg12
g29
sg14
g40
sg15
g40
sg16
(lp267
I2
aI2
aI1
aI1
aI2
aI2
aI2
aI2
aI2
aI2
aI2
aI2
aI2
asg18
g25
sg20
g5
sg21
g40
sg22
g23
sg24
g19
sg26
g23
sa(dp268
g2
S'The girl believes that the men sneeze.'
p269
sg4
g5
sg6
g7
sg8
g9
sg10
g40
sg12
g29
sg14
g40
sg15
g11
sg16
(lp270
I2
aI1
aI2
aI1
aI1
aI2
aI2
aI2
aI2
aI1
aI2
aI2
aI2
asg18
g19
sg20
g5
sg21
g11
sg22
g23
sg24
g25
sg26
g23
sa(dp271
g2
S'The boys believe and they sneeze.'
p272
sg4
g39
sg6
g7
sg8
g9
sg10
g40
sg12
g13
sg14
g40
sg15
g40
sg16
(lp273
I2
aI2
aI1
aI1
aI2
aI2
aI1
aI1
aI2
aI0
aI2
aI2
aI2
asg18
g25
sg20
g5
sg21
g40
sg22
g23
sg24
g42
sg26
g23
sa(dp274
g2
S'The woman knows that the girl cries.'
p275
sg4
g5
sg6
g7
sg8
g9
sg10
g11
sg12
g29
sg14
g11
sg15
g11
sg16
(lp276
I2
aI1
aI2
aI1
aI1
aI2
aI2
aI2
aI1
aI2
aI2
aI1
aI2
asg18
g19
sg20
g5
sg21
g11
sg22
g23
sg24
g19
sg26
g23
sa(dp277
g2
S'They think and the boy sneezes.'
p278
sg4
g5
sg6
g7
sg8
g9
sg10
g11
sg12
g13
sg14
g11
sg15
g40
sg16
(lp279
I1
aI2
aI0
aI1
aI2
aI2
aI1
aI2
aI1
aI1
aI2
aI1
aI2
asg18
g42
sg20
g39
sg21
g40
sg22
g23
sg24
g25
sg26
g23
sa(dp280
g2
S'They think and the boys cry.'
p281
sg4
g5
sg6
g7
sg8
g9
sg10
g40
sg12
g13
sg14
g40
sg15
g40
sg16
(lp282
I1
aI2
aI0
aI1
aI2
aI2
aI1
aI2
aI2
aI1
aI2
aI2
aI2
asg18
g42
sg20
g39
sg21
g40
sg22
g23
sg24
g25
sg26
g23
sa(dp283
g2
S'The woman believes that the boy sneezes.'
p284
sg4
g5
sg6
g7
sg8
g9
sg10
g11
sg12
g29
sg14
g11
sg15
g11
sg16
(lp285
I2
aI1
aI2
aI1
aI1
aI2
aI2
aI2
aI1
aI1
aI2
aI1
aI2
asg18
g19
sg20
g5
sg21
g11
sg22
g23
sg24
g25
sg26
g23
sa(dp286
g2
S'She believes that the boys sneeze.'
p287
sg4
g5
sg6
g7
sg8
g9
sg10
g40
sg12
g29
sg14
g40
sg15
g11
sg16
(lp288
I1
aI1
aI2
aI1
aI1
aI2
aI2
aI2
aI2
aI1
aI2
aI2
aI2
asg18
g19
sg20
g39
sg21
g11
sg22
g23
sg24
g25
sg26
g23
sa(dp289
g2
S'The women believe and the men sneeze.'
p290
sg4
g5
sg6
g7
sg8
g9
sg10
g40
sg12
g13
sg14
g40
sg15
g40
sg16
(lp291
I2
aI2
aI2
aI1
aI2
aI2
aI1
aI2
aI2
aI1
aI2
aI2
aI2
asg18
g19
sg20
g5
sg21
g40
sg22
g23
sg24
g25
sg26
g23
sa(dp292
g2
S'The boy believes and the boys cry.'
p293
sg4
g5
sg6
g7
sg8
g9
sg10
g40
sg12
g13
sg14
g40
sg15
g11
sg16
(lp294
I2
aI1
aI1
aI1
aI1
aI2
aI1
aI2
aI2
aI1
aI2
aI2
aI2
asg18
g25
sg20
g5
sg21
g11
sg22
g23
sg24
g25
sg26
g23
sa(dp295
g2
S'The boys know and the men sneeze.'
p296
sg4
g5
sg6
g7
sg8
g9
sg10
g40
sg12
g13
sg14
g40
sg15
g40
sg16
(lp297
I2
aI2
aI1
aI1
aI2
aI2
aI1
aI2
aI2
aI1
aI2
aI2
aI2
asg18
g25
sg20
g5
sg21
g40
sg22
g23
sg24
g25
sg26
g23
sa(dp298
g2
S'The boys believe and the woman cries.'
p299
sg4
g5
sg6
g7
sg8
g9
sg10
g11
sg12
g13
sg14
g11
sg15
g40
sg16
(lp300
I2
aI2
aI1
aI1
aI2
aI2
aI1
aI2
aI1
aI2
aI2
aI1
aI2
asg18
g25
sg20
g5
sg21
g40
sg22
g23
sg24
g19
sg26
g23
sa(dp301
g2
S'The man thinks and she cries.'
p302
sg4
g39
sg6
g7
sg8
g9
sg10
g11
sg12
g13
sg14
g11
sg15
g11
sg16
(lp303
I2
aI1
aI1
aI1
aI1
aI2
aI1
aI1
aI1
aI2
aI2
aI1
aI2
asg18
g25
sg20
g5
sg21
g11
sg22
g23
sg24
g19
sg26
g23
sa(dp304
g2
S'She knows that the men sneeze.'
p305
sg4
g5
sg6
g7
sg8
g9
sg10
g40
sg12
g29
sg14
g40
sg15
g11
sg16
(lp306
I1
aI1
aI2
aI1
aI1
aI2
aI2
aI2
aI2
aI1
aI2
aI2
aI2
asg18
g19
sg20
g39
sg21
g11
sg22
g23
sg24
g25
sg26
g23
sa(dp307
g2
S'They think that the boy cries.'
p308
sg4
g5
sg6
g7
sg8
g9
sg10
g11
sg12
g29
sg14
g11
sg15
g40
sg16
(lp309
I1
aI2
aI0
aI1
aI2
aI2
aI2
aI2
aI1
aI1
aI2
aI1
aI2
asg18
g42
sg20
g39
sg21
g40
sg22
g23
sg24
g25
sg26
g23
sa(dp310
g2
S'The women know and the men cry.'
p311
sg4
g5
sg6
g7
sg8
g9
sg10
g40
sg12
g13
sg14
g40
sg15
g40
sg16
(lp312
I2
aI2
aI2
aI1
aI2
aI2
aI1
aI2
aI2
aI1
aI2
aI2
aI2
asg18
g19
sg20
g5
sg21
g40
sg22
g23
sg24
g25
sg26
g23
sa(dp313
g2
S'The women think that the boy sneezes.'
p314
sg4
g5
sg6
g7
sg8
g9
sg10
g11
sg12
g29
sg14
g11
sg15
g40
sg16
(lp315
I2
aI2
aI2
aI1
aI2
aI2
aI2
aI2
aI1
aI1
aI2
aI1
aI2
asg18
g19
sg20
g5
sg21
g40
sg22
g23
sg24
g25
sg26
g23
sa(dp316
g2
S'The boys think that he sneezes.'
p317
sg4
g39
sg6
g7
sg8
g9
sg10
g11
sg12
g29
sg14
g11
sg15
g40
sg16
(lp318
I2
aI2
aI1
aI1
aI2
aI2
aI2
aI1
aI1
aI1
aI2
aI1
aI2
asg18
g25
sg20
g5
sg21
g40
sg22
g23
sg24
g25
sg26
g23
sa(dp319
g2
S'The girl believes that they cry.'
p320
sg4
g39
sg6
g7
sg8
g9
sg10
g40
sg12
g29
sg14
g40
sg15
g11
sg16
(lp321
I2
aI1
aI2
aI1
aI1
aI2
aI2
aI1
aI2
aI0
aI2
aI2
aI2
asg18
g19
sg20
g5
sg21
g11
sg22
g23
sg24
g42
sg26
g23
sa(dp322
g2
S'The boys know and the women cry.'
p323
sg4
g5
sg6
g7
sg8
g9
sg10
g40
sg12
g13
sg14
g40
sg15
g40
sg16
(lp324
I2
aI2
aI1
aI1
aI2
aI2
aI1
aI2
aI2
aI2
aI2
aI2
aI2
asg18
g25
sg20
g5
sg21
g40
sg22
g23
sg24
g19
sg26
g23
sa(dp325
g2
S'She believes and the women cry.'
p326
sg4
g5
sg6
g7
sg8
g9
sg10
g40
sg12
g13
sg14
g40
sg15
g11
sg16
(lp327
I1
aI1
aI2
aI1
aI1
aI2
aI1
aI2
aI2
aI2
aI2
aI2
aI2
asg18
g19
sg20
g39
sg21
g11
sg22
g23
sg24
g19
sg26
g23
sa(dp328
g2
S'They think and the women sneeze.'
p329
sg4
g5
sg6
g7
sg8
g9
sg10
g40
sg12
g13
sg14
g40
sg15
g40
sg16
(lp330
I1
aI2
aI0
aI1
aI2
aI2
aI1
aI2
aI2
aI2
aI2
aI2
aI2
asg18
g42
sg20
g39
sg21
g40
sg22
g23
sg24
g19
sg26
g23
sa(dp331
g2
S'He thinks that they sneeze.'
p332
sg4
g39
sg6
g7
sg8
g9
sg10
g40
sg12
g29
sg14
g40
sg15
g11
sg16
(lp333
I1
aI1
aI1
aI1
aI1
aI2
aI2
aI1
aI2
aI0
aI2
aI2
aI2
asg18
g25
sg20
g39
sg21
g11
sg22
g23
sg24
g42
sg26
g23
sa(dp334
g2
S'The man knows and they sneeze.'
p335
sg4
g39
sg6
g7
sg8
g9
sg10
g40
sg12
g13
sg14
g40
sg15
g11
sg16
(lp336
I2
aI1
aI1
aI1
aI1
aI2
aI1
aI1
aI2
aI0
aI2
aI2
aI2
asg18
g25
sg20
g5
sg21
g11
sg22
g23
sg24
g42
sg26
g23
sa(dp337
g2
S'The woman knows that he cries.'
p338
sg4
g39
sg6
g7
sg8
g9
sg10
g11
sg12
g29
sg14
g11
sg15
g11
sg16
(lp339
I2
aI1
aI2
aI1
aI1
aI2
aI2
aI1
aI1
aI1
aI2
aI1
aI2
asg18
g19
sg20
g5
sg21
g11
sg22
g23
sg24
g25
sg26
g23
sa(dp340
g2
S'They think and the women cry.'
p341
sg4
g5
sg6
g7
sg8
g9
sg10
g40
sg12
g13
sg14
g40
sg15
g40
sg16
(lp342
I1
aI2
aI0
aI1
aI2
aI2
aI1
aI2
aI2
aI2
aI2
aI2
aI2
asg18
g42
sg20
g39
sg21
g40
sg22
g23
sg24
g19
sg26
g23
sa(dp343
g2
S'The man knows that the man sneezes.'
p344
sg4
g5
sg6
g7
sg8
g9
sg10
g11
sg12
g29
sg14
g11
sg15
g11
sg16
(lp345
I2
aI1
aI1
aI1
aI1
aI2
aI2
aI2
aI1
aI1
aI2
aI1
aI2
asg18
g25
sg20
g5
sg21
g11
sg22
g23
sg24
g25
sg26
g23
sa(dp346
g2
S'The boys believe and she sneezes.'
p347
sg4
g39
sg6
g7
sg8
g9
sg10
g11
sg12
g13
sg14
g11
sg15
g40
sg16
(lp348
I2
aI2
aI1
aI1
aI2
aI2
aI1
aI1
aI1
aI2
aI2
aI1
aI2
asg18
g25
sg20
g5
sg21
g40
sg22
g23
sg24
g19
sg26
g23
sa(dp349
g2
S'They know that they sneeze.'
p350
sg4
g39
sg6
g7
sg8
g9
sg10
g40
sg12
g29
sg14
g40
sg15
g40
sg16
(lp351
I1
aI2
aI0
aI1
aI2
aI2
aI2
aI1
aI2
aI0
aI2
aI2
aI2
asg18
g42
sg20
g39
sg21
g40
sg22
g23
sg24
g42
sg26
g23
sa(dp352
g2
S'He thinks and they sneeze.'
p353
sg4
g39
sg6
g7
sg8
g9
sg10
g40
sg12
g13
sg14
g40
sg15
g11
sg16
(lp354
I1
aI1
aI1
aI1
aI1
aI2
aI1
aI1
aI2
aI0
aI2
aI2
aI2
asg18
g25
sg20
g39
sg21
g11
sg22
g23
sg24
g42
sg26
g23
sa(dp355
g2
S'They know and the boys cry.'
p356
sg4
g5
sg6
g7
sg8
g9
sg10
g40
sg12
g13
sg14
g40
sg15
g40
sg16
(lp357
I1
aI2
aI0
aI1
aI2
aI2
aI1
aI2
aI2
aI1
aI2
aI2
aI2
asg18
g42
sg20
g39
sg21
g40
sg22
g23
sg24
g25
sg26
g23
sa(dp358
g2
S'She believes and the women sneeze.'
p359
sg4
g5
sg6
g7
sg8
g9
sg10
g40
sg12
g13
sg14
g40
sg15
g11
sg16
(lp360
I1
aI1
aI2
aI1
aI1
aI2
aI1
aI2
aI2
aI2
aI2
aI2
aI2
asg18
g19
sg20
g39
sg21
g11
sg22
g23
sg24
g19
sg26
g23
sa(dp361
g2
S'The boys think that the boy cries.'
p362
sg4
g5
sg6
g7
sg8
g9
sg10
g11
sg12
g29
sg14
g11
sg15
g40
sg16
(lp363
I2
aI2
aI1
aI1
aI2
aI2
aI2
aI2
aI1
aI1
aI2
aI1
aI2
asg18
g25
sg20
g5
sg21
g40
sg22
g23
sg24
g25
sg26
g23
sa(dp364
g2
S'The woman thinks that the boys cry.'
p365
sg4
g5
sg6
g7
sg8
g9
sg10
g40
sg12
g29
sg14
g40
sg15
g11
sg16
(lp366
I2
aI1
aI2
aI1
aI1
aI2
aI2
aI2
aI2
aI1
aI2
aI2
aI2
asg18
g19
sg20
g5
sg21
g11
sg22
g23
sg24
g25
sg26
g23
sa(dp367
g2
S'The boy believes that they sneeze.'
p368
sg4
g39
sg6
g7
sg8
g9
sg10
g40
sg12
g29
sg14
g40
sg15
g11
sg16
(lp369
I2
aI1
aI1
aI1
aI1
aI2
aI2
aI1
aI2
aI0
aI2
aI2
aI2
asg18
g25
sg20
g5
sg21
g11
sg22
g23
sg24
g42
sg26
g23
sa(dp370
g2
S'The boy knows that the boy cries.'
p371
sg4
g5
sg6
g7
sg8
g9
sg10
g11
sg12
g29
sg14
g11
sg15
g11
sg16
(lp372
I2
aI1
aI1
aI1
aI1
aI2
aI2
aI2
aI1
aI1
aI2
aI1
aI2
asg18
g25
sg20
g5
sg21
g11
sg22
g23
sg24
g25
sg26
g23
sa(dp373
g2
S'The women believe and they sneeze.'
p374
sg4
g39
sg6
g7
sg8
g9
sg10
g40
sg12
g13
sg14
g40
sg15
g40
sg16
(lp375
I2
aI2
aI2
aI1
aI2
aI2
aI1
aI1
aI2
aI0
aI2
aI2
aI2
asg18
g19
sg20
g5
sg21
g40
sg22
g23
sg24
g42
sg26
g23
sa(dp376
g2
S'The women think and the boy sneezes.'
p377
sg4
g5
sg6
g7
sg8
g9
sg10
g11
sg12
g13
sg14
g11
sg15
g40
sg16
(lp378
I2
aI2
aI2
aI1
aI2
aI2
aI1
aI2
aI1
aI1
aI2
aI1
aI2
asg18
g19
sg20
g5
sg21
g40
sg22
g23
sg24
g25
sg26
g23
sa(dp379
g2
S'He knows that she sneezes.'
p380
sg4
g39
sg6
g7
sg8
g9
sg10
g11
sg12
g29
sg14
g11
sg15
g11
sg16
(lp381
I1
aI1
aI1
aI1
aI1
aI2
aI2
aI1
aI1
aI2
aI2
aI1
aI2
asg18
g25
sg20
g39
sg21
g11
sg22
g23
sg24
g19
sg26
g23
sa(dp382
g2
S'The boys think and she cries.'
p383
sg4
g39
sg6
g7
sg8
g9
sg10
g11
sg12
g13
sg14
g11
sg15
g40
sg16
(lp384
I2
aI2
aI1
aI1
aI2
aI2
aI1
aI1
aI1
aI2
aI2
aI1
aI2
asg18
g25
sg20
g5
sg21
g40
sg22
g23
sg24
g19
sg26
g23
sa(dp385
g2
S'The man knows and the woman cries.'
p386
sg4
g5
sg6
g7
sg8
g9
sg10
g11
sg12
g13
sg14
g11
sg15
g11
sg16
(lp387
I2
aI1
aI1
aI1
aI1
aI2
aI1
aI2
aI1
aI2
aI2
aI1
aI2
asg18
g25
sg20
g5
sg21
g11
sg22
g23
sg24
g19
sg26
g23
sa(dp388
g2
S'The boys know that the men sneeze.'
p389
sg4
g5
sg6
g7
sg8
g9
sg10
g40
sg12
g29
sg14
g40
sg15
g40
sg16
(lp390
I2
aI2
aI1
aI1
aI2
aI2
aI2
aI2
aI2
aI1
aI2
aI2
aI2
asg18
g25
sg20
g5
sg21
g40
sg22
g23
sg24
g25
sg26
g23
sa(dp391
g2
S'They think and the boys sneeze.'
p392
sg4
g5
sg6
g7
sg8
g9
sg10
g40
sg12
g13
sg14
g40
sg15
g40
sg16
(lp393
I1
aI2
aI0
aI1
aI2
aI2
aI1
aI2
aI2
aI1
aI2
aI2
aI2
asg18
g42
sg20
g39
sg21
g40
sg22
g23
sg24
g25
sg26
g23
sa(dp394
g2
S'The girl thinks that they sneeze.'
p395
sg4
g39
sg6
g7
sg8
g9
sg10
g40
sg12
g29
sg14
g40
sg15
g11
sg16
(lp396
I2
aI1
aI2
aI1
aI1
aI2
aI2
aI1
aI2
aI0
aI2
aI2
aI2
asg18
g19
sg20
g5
sg21
g11
sg22
g23
sg24
g42
sg26
g23
sa(dp397
g2
S'He knows and the boys sneeze.'
p398
sg4
g5
sg6
g7
sg8
g9
sg10
g40
sg12
g13
sg14
g40
sg15
g11
sg16
(lp399
I1
aI1
aI1
aI1
aI1
aI2
aI1
aI2
aI2
aI1
aI2
aI2
aI2
asg18
g25
sg20
g39
sg21
g11
sg22
g23
sg24
g25
sg26
g23
sa(dp400
g2
S'The boy knows that the women cry.'
p401
sg4
g5
sg6
g7
sg8
g9
sg10
g40
sg12
g29
sg14
g40
sg15
g11
sg16
(lp402
I2
aI1
aI1
aI1
aI1
aI2
aI2
aI2
aI2
aI2
aI2
aI2
aI2
asg18
g25
sg20
g5
sg21
g11
sg22
g23
sg24
g19
sg26
g23
sa(dp403
g2
S'The man believes and the man sneezes.'
p404
sg4
g5
sg6
g7
sg8
g9
sg10
g11
sg12
g13
sg14
g11
sg15
g11
sg16
(lp405
I2
aI1
aI1
aI1
aI1
aI2
aI1
aI2
aI1
aI1
aI2
aI1
aI2
asg18
g25
sg20
g5
sg21
g11
sg22
g23
sg24
g25
sg26
g23
sa(dp406
g2
S'The man thinks and the man cries.'
p407
sg4
g5
sg6
g7
sg8
g9
sg10
g11
sg12
g13
sg14
g11
sg15
g11
sg16
(lp408
I2
aI1
aI1
aI1
aI1
aI2
aI1
aI2
aI1
aI1
aI2
aI1
aI2
asg18
g25
sg20
g5
sg21
g11
sg22
g23
sg24
g25
sg26
g23
sa(dp409
g2
S'The girl knows that she cries.'
p410
sg4
g39
sg6
g7
sg8
g9
sg10
g11
sg12
g29
sg14
g11
sg15
g11
sg16
(lp411
I2
aI1
aI2
aI1
aI1
aI2
aI2
aI1
aI1
aI2
aI2
aI1
aI2
asg18
g19
sg20
g5
sg21
g11
sg22
g23
sg24
g19
sg26
g23
sa(dp412
g2
S'The women know that the boy cries.'
p413
sg4
g5
sg6
g7
sg8
g9
sg10
g11
sg12
g29
sg14
g11
sg15
g40
sg16
(lp414
I2
aI2
aI2
aI1
aI2
aI2
aI2
aI2
aI1
aI1
aI2
aI1
aI2
asg18
g19
sg20
g5
sg21
g40
sg22
g23
sg24
g25
sg26
g23
sa(dp415
g2
S'He thinks that the girl sneezes.'
p416
sg4
g5
sg6
g7
sg8
g9
sg10
g11
sg12
g29
sg14
g11
sg15
g11
sg16
(lp417
I1
aI1
aI1
aI1
aI1
aI2
aI2
aI2
aI1
aI2
aI2
aI1
aI2
asg18
g25
sg20
g39
sg21
g11
sg22
g23
sg24
g19
sg26
g23
sa(dp418
g2
S'The boy thinks and she sneezes.'
p419
sg4
g39
sg6
g7
sg8
g9
sg10
g11
sg12
g13
sg14
g11
sg15
g11
sg16
(lp420
I2
aI1
aI1
aI1
aI1
aI2
aI1
aI1
aI1
aI2
aI2
aI1
aI2
asg18
g25
sg20
g5
sg21
g11
sg22
g23
sg24
g19
sg26
g23
sa(dp421
g2
S'They know and the man sneezes.'
p422
sg4
g5
sg6
g7
sg8
g9
sg10
g11
sg12
g13
sg14
g11
sg15
g40
sg16
(lp423
I1
aI2
aI0
aI1
aI2
aI2
aI1
aI2
aI1
aI1
aI2
aI1
aI2
asg18
g42
sg20
g39
sg21
g40
sg22
g23
sg24
g25
sg26
g23
sa(dp424
g2
S'The men believe and they cry.'
p425
sg4
g39
sg6
g7
sg8
g9
sg10
g40
sg12
g13
sg14
g40
sg15
g40
sg16
(lp426
I2
aI2
aI1
aI1
aI2
aI2
aI1
aI1
aI2
aI0
aI2
aI2
aI2
asg18
g25
sg20
g5
sg21
g40
sg22
g23
sg24
g42
sg26
g23
sa(dp427
g2
S'They know that he cries.'
p428
sg4
g39
sg6
g7
sg8
g9
sg10
g11
sg12
g29
sg14
g11
sg15
g40
sg16
(lp429
I1
aI2
aI0
aI1
aI2
aI2
aI2
aI1
aI1
aI1
aI2
aI1
aI2
asg18
g42
sg20
g39
sg21
g40
sg22
g23
sg24
g25
sg26
g23
sa(dp430
g2
S'They know that the women sneeze.'
p431
sg4
g5
sg6
g7
sg8
g9
sg10
g40
sg12
g29
sg14
g40
sg15
g40
sg16
(lp432
I1
aI2
aI0
aI1
aI2
aI2
aI2
aI2
aI2
aI2
aI2
aI2
aI2
asg18
g42
sg20
g39
sg21
g40
sg22
g23
sg24
g19
sg26
g23
sa(dp433
g2
S'They believe and the boys cry.'
p434
sg4
g5
sg6
g7
sg8
g9
sg10
g40
sg12
g13
sg14
g40
sg15
g40
sg16
(lp435
I1
aI2
aI0
aI1
aI2
aI2
aI1
aI2
aI2
aI1
aI2
aI2
aI2
asg18
g42
sg20
g39
sg21
g40
sg22
g23
sg24
g25
sg26
g23
sa(dp436
g2
S'The man knows and she cries.'
p437
sg4
g39
sg6
g7
sg8
g9
sg10
g11
sg12
g13
sg14
g11
sg15
g11
sg16
(lp438
I2
aI1
aI1
aI1
aI1
aI2
aI1
aI1
aI1
aI2
aI2
aI1
aI2
asg18
g25
sg20
g5
sg21
g11
sg22
g23
sg24
g19
sg26
g23
sa(dp439
g2
S'The woman believes and the men cry.'
p440
sg4
g5
sg6
g7
sg8
g9
sg10
g40
sg12
g13
sg14
g40
sg15
g11
sg16
(lp441
I2
aI1
aI2
aI1
aI1
aI2
aI1
aI2
aI2
aI1
aI2
aI2
aI2
asg18
g19
sg20
g5
sg21
g11
sg22
g23
sg24
g25
sg26
g23
sa(dp442
g2
S'He thinks that the woman cries.'
p443
sg4
g5
sg6
g7
sg8
g9
sg10
g11
sg12
g29
sg14
g11
sg15
g11
sg16
(lp444
I1
aI1
aI1
aI1
aI1
aI2
aI2
aI2
aI1
aI2
aI2
aI1
aI2
asg18
g25
sg20
g39
sg21
g11
sg22
g23
sg24
g19
sg26
g23
sa(dp445
g2
S'The boys think that she cries.'
p446
sg4
g39
sg6
g7
sg8
g9
sg10
g11
sg12
g29
sg14
g11
sg15
g40
sg16
(lp447
I2
aI2
aI1
aI1
aI2
aI2
aI2
aI1
aI1
aI2
aI2
aI1
aI2
asg18
g25
sg20
g5
sg21
g40
sg22
g23
sg24
g19
sg26
g23
sa(dp448
g2
S'The boy knows that she sneezes.'
p449
sg4
g39
sg6
g7
sg8
g9
sg10
g11
sg12
g29
sg14
g11
sg15
g11
sg16
(lp450
I2
aI1
aI1
aI1
aI1
aI2
aI2
aI1
aI1
aI2
aI2
aI1
aI2
asg18
g25
sg20
g5
sg21
g11
sg22
g23
sg24
g19
sg26
g23
sa(dp451
g2
S'The boy knows and the boy sneezes.'
p452
sg4
g5
sg6
g7
sg8
g9
sg10
g11
sg12
g13
sg14
g11
sg15
g11
sg16
(lp453
I2
aI1
aI1
aI1
aI1
aI2
aI1
aI2
aI1
aI1
aI2
aI1
aI2
asg18
g25
sg20
g5
sg21
g11
sg22
g23
sg24
g25
sg26
g23
sa(dp454
g2
S'The man thinks that the men sneeze.'
p455
sg4
g5
sg6
g7
sg8
g9
sg10
g40
sg12
g29
sg14
g40
sg15
g11
sg16
(lp456
I2
aI1
aI1
aI1
aI1
aI2
aI2
aI2
aI2
aI1
aI2
aI2
aI2
asg18
g25
sg20
g5
sg21
g11
sg22
g23
sg24
g25
sg26
g23
sa(dp457
g2
S'They believe that the girl sneezes.'
p458
sg4
g5
sg6
g7
sg8
g9
sg10
g11
sg12
g29
sg14
g11
sg15
g40
sg16
(lp459
I1
aI2
aI0
aI1
aI2
aI2
aI2
aI2
aI1
aI2
aI2
aI1
aI2
asg18
g42
sg20
g39
sg21
g40
sg22
g23
sg24
g19
sg26
g23
sa(dp460
g2
S'He believes and the girl sneezes.'
p461
sg4
g5
sg6
g7
sg8
g9
sg10
g11
sg12
g13
sg14
g11
sg15
g11
sg16
(lp462
I1
aI1
aI1
aI1
aI1
aI2
aI1
aI2
aI1
aI2
aI2
aI1
aI2
asg18
g25
sg20
g39
sg21
g11
sg22
g23
sg24
g19
sg26
g23
sa(dp463
g2
S'The women know that he sneezes.'
p464
sg4
g39
sg6
g7
sg8
g9
sg10
g11
sg12
g29
sg14
g11
sg15
g40
sg16
(lp465
I2
aI2
aI2
aI1
aI2
aI2
aI2
aI1
aI1
aI1
aI2
aI1
aI2
asg18
g19
sg20
g5
sg21
g40
sg22
g23
sg24
g25
sg26
g23
sa(dp466
g2
S'They think and they sneeze.'
p467
sg4
g39
sg6
g7
sg8
g9
sg10
g40
sg12
g13
sg14
g40
sg15
g40
sg16
(lp468
I1
aI2
aI0
aI1
aI2
aI2
aI1
aI1
aI2
aI0
aI2
aI2
aI2
asg18
g42
sg20
g39
sg21
g40
sg22
g23
sg24
g42
sg26
g23
sa(dp469
g2
S'The men know and they cry.'
p470
sg4
g39
sg6
g7
sg8
g9
sg10
g40
sg12
g13
sg14
g40
sg15
g40
sg16
(lp471
I2
aI2
aI1
aI1
aI2
aI2
aI1
aI1
aI2
aI0
aI2
aI2
aI2
asg18
g25
sg20
g5
sg21
g40
sg22
g23
sg24
g42
sg26
g23
sa(dp472
g2
S'She thinks and the boys cry.'
p473
sg4
g5
sg6
g7
sg8
g9
sg10
g40
sg12
g13
sg14
g40
sg15
g11
sg16
(lp474
I1
aI1
aI2
aI1
aI1
aI2
aI1
aI2
aI2
aI1
aI2
aI2
aI2
asg18
g19
sg20
g39
sg21
g11
sg22
g23
sg24
g25
sg26
g23
sa(dp475
g2
S'The women know and the men sneeze.'
p476
sg4
g5
sg6
g7
sg8
g9
sg10
g40
sg12
g13
sg14
g40
sg15
g40
sg16
(lp477
I2
aI2
aI2
aI1
aI2
aI2
aI1
aI2
aI2
aI1
aI2
aI2
aI2
asg18
g19
sg20
g5
sg21
g40
sg22
g23
sg24
g25
sg26
g23
sa(dp478
g2
S'The woman thinks and they cry.'
p479
sg4
g39
sg6
g7
sg8
g9
sg10
g40
sg12
g13
sg14
g40
sg15
g11
sg16
(lp480
I2
aI1
aI2
aI1
aI1
aI2
aI1
aI1
aI2
aI0
aI2
aI2
aI2
asg18
g19
sg20
g5
sg21
g11
sg22
g23
sg24
g42
sg26
g23
sa(dp481
g2
S'The men know that the man cries.'
p482
sg4
g5
sg6
g7
sg8
g9
sg10
g11
sg12
g29
sg14
g11
sg15
g40
sg16
(lp483
I2
aI2
aI1
aI1
aI2
aI2
aI2
aI2
aI1
aI1
aI2
aI1
aI2
asg18
g25
sg20
g5
sg21
g40
sg22
g23
sg24
g25
sg26
g23
sa(dp484
g2
S'The girl knows that he cries.'
p485
sg4
g39
sg6
g7
sg8
g9
sg10
g11
sg12
g29
sg14
g11
sg15
g11
sg16
(lp486
I2
aI1
aI2
aI1
aI1
aI2
aI2
aI1
aI1
aI1
aI2
aI1
aI2
asg18
g19
sg20
g5
sg21
g11
sg22
g23
sg24
g25
sg26
g23
sa(dp487
g2
S'The men think and he sneezes.'
p488
sg4
g39
sg6
g7
sg8
g9
sg10
g11
sg12
g13
sg14
g11
sg15
g40
sg16
(lp489
I2
aI2
aI1
aI1
aI2
aI2
aI1
aI1
aI1
aI1
aI2
aI1
aI2
asg18
g25
sg20
g5
sg21
g40
sg22
g23
sg24
g25
sg26
g23
sa(dp490
g2
S'He knows and the women sneeze.'
p491
sg4
g5
sg6
g7
sg8
g9
sg10
g40
sg12
g13
sg14
g40
sg15
g11
sg16
(lp492
I1
aI1
aI1
aI1
aI1
aI2
aI1
aI2
aI2
aI2
aI2
aI2
aI2
asg18
g25
sg20
g39
sg21
g11
sg22
g23
sg24
g19
sg26
g23
sa(dp493
g2
S'The women know and he sneezes.'
p494
sg4
g39
sg6
g7
sg8
g9
sg10
g11
sg12
g13
sg14
g11
sg15
g40
sg16
(lp495
I2
aI2
aI2
aI1
aI2
aI2
aI1
aI1
aI1
aI1
aI2
aI1
aI2
asg18
g19
sg20
g5
sg21
g40
sg22
g23
sg24
g25
sg26
g23
sa(dp496
g2
S'The boy believes and the boys sneeze.'
p497
sg4
g5
sg6
g7
sg8
g9
sg10
g40
sg12
g13
sg14
g40
sg15
g11
sg16
(lp498
I2
aI1
aI1
aI1
aI1
aI2
aI1
aI2
aI2
aI1
aI2
aI2
aI2
asg18
g25
sg20
g5
sg21
g11
sg22
g23
sg24
g25
sg26
g23
sa(dp499
g2
S'He knows and the boys cry.'
p500
sg4
g5
sg6
g7
sg8
g9
sg10
g40
sg12
g13
sg14
g40
sg15
g11
sg16
(lp501
I1
aI1
aI1
aI1
aI1
aI2
aI1
aI2
aI2
aI1
aI2
aI2
aI2
asg18
g25
sg20
g39
sg21
g11
sg22
g23
sg24
g25
sg26
g23
sa(dp502
g2
S'She thinks and the men sneeze.'
p503
sg4
g5
sg6
g7
sg8
g9
sg10
g40
sg12
g13
sg14
g40
sg15
g11
sg16
(lp504
I1
aI1
aI2
aI1
aI1
aI2
aI1
aI2
aI2
aI1
aI2
aI2
aI2
asg18
g19
sg20
g39
sg21
g11
sg22
g23
sg24
g25
sg26
g23
sa(dp505
g2
S'The men know and the boys cry.'
p506
sg4
g5
sg6
g7
sg8
g9
sg10
g40
sg12
g13
sg14
g40
sg15
g40
sg16
(lp507
I2
aI2
aI1
aI1
aI2
aI2
aI1
aI2
aI2
aI1
aI2
aI2
aI2
asg18
g25
sg20
g5
sg21
g40
sg22
g23
sg24
g25
sg26
g23
sa(dp508
g2
S'He believes that the women sneeze.'
p509
sg4
g5
sg6
g7
sg8
g9
sg10
g40
sg12
g29
sg14
g40
sg15
g11
sg16
(lp510
I1
aI1
aI1
aI1
aI1
aI2
aI2
aI2
aI2
aI2
aI2
aI2
aI2
asg18
g25
sg20
g39
sg21
g11
sg22
g23
sg24
g19
sg26
g23
sa(dp511
g2
S'The women believe and the boy cries.'
p512
sg4
g5
sg6
g7
sg8
g9
sg10
g11
sg12
g13
sg14
g11
sg15
g40
sg16
(lp513
I2
aI2
aI2
aI1
aI2
aI2
aI1
aI2
aI1
aI1
aI2
aI1
aI2
asg18
g19
sg20
g5
sg21
g40
sg22
g23
sg24
g25
sg26
g23
sa(dp514
g2
S'He knows and the woman cries.'
p515
sg4
g5
sg6
g7
sg8
g9
sg10
g11
sg12
g13
sg14
g11
sg15
g11
sg16
(lp516
I1
aI1
aI1
aI1
aI1
aI2
aI1
aI2
aI1
aI2
aI2
aI1
aI2
asg18
g25
sg20
g39
sg21
g11
sg22
g23
sg24
g19
sg26
g23
sa(dp517
g2
S'He knows that the girl sneezes.'
p518
sg4
g5
sg6
g7
sg8
g9
sg10
g11
sg12
g29
sg14
g11
sg15
g11
sg16
(lp519
I1
aI1
aI1
aI1
aI1
aI2
aI2
aI2
aI1
aI2
aI2
aI1
aI2
asg18
g25
sg20
g39
sg21
g11
sg22
g23
sg24
g19
sg26
g23
sa(dp520
g2
S'The man thinks that she cries.'
p521
sg4
g39
sg6
g7
sg8
g9
sg10
g11
sg12
g29
sg14
g11
sg15
g11
sg16
(lp522
I2
aI1
aI1
aI1
aI1
aI2
aI2
aI1
aI1
aI2
aI2
aI1
aI2
asg18
g25
sg20
g5
sg21
g11
sg22
g23
sg24
g19
sg26
g23
sa(dp523
g2
S'He believes that he cries.'
p524
sg4
g39
sg6
g7
sg8
g9
sg10
g11
sg12
g29
sg14
g11
sg15
g11
sg16
(lp525
I1
aI1
aI1
aI1
aI1
aI2
aI2
aI1
aI1
aI1
aI2
aI1
aI2
asg18
g25
sg20
g39
sg21
g11
sg22
g23
sg24
g25
sg26
g23
sa(dp526
g2
S'He knows and the man cries.'
p527
sg4
g5
sg6
g7
sg8
g9
sg10
g11
sg12
g13
sg14
g11
sg15
g11
sg16
(lp528
I1
aI1
aI1
aI1
aI1
aI2
aI1
aI2
aI1
aI1
aI2
aI1
aI2
asg18
g25
sg20
g39
sg21
g11
sg22
g23
sg24
g25
sg26
g23
sa(dp529
g2
S'The boys believe that he cries.'
p530
sg4
g39
sg6
g7
sg8
g9
sg10
g11
sg12
g29
sg14
g11
sg15
g40
sg16
(lp531
I2
aI2
aI1
aI1
aI2
aI2
aI2
aI1
aI1
aI1
aI2
aI1
aI2
asg18
g25
sg20
g5
sg21
g40
sg22
g23
sg24
g25
sg26
g23
sa(dp532
g2
S'He knows and he sneezes.'
p533
sg4
g39
sg6
g7
sg8
g9
sg10
g11
sg12
g13
sg14
g11
sg15
g11
sg16
(lp534
I1
aI1
aI1
aI1
aI1
aI2
aI1
aI1
aI1
aI1
aI2
aI1
aI2
asg18
g25
sg20
g39
sg21
g11
sg22
g23
sg24
g25
sg26
g23
sa(dp535
g2
S'She knows and the boy sneezes.'
p536
sg4
g5
sg6
g7
sg8
g9
sg10
g11
sg12
g13
sg14
g11
sg15
g11
sg16
(lp537
I1
aI1
aI2
aI1
aI1
aI2
aI1
aI2
aI1
aI1
aI2
aI1
aI2
asg18
g19
sg20
g39
sg21
g11
sg22
g23
sg24
g25
sg26
g23
sa(dp538
g2
S'The men believe that he sneezes.'
p539
sg4
g39
sg6
g7
sg8
g9
sg10
g11
sg12
g29
sg14
g11
sg15
g40
sg16
(lp540
I2
aI2
aI1
aI1
aI2
aI2
aI2
aI1
aI1
aI1
aI2
aI1
aI2
asg18
g25
sg20
g5
sg21
g40
sg22
g23
sg24
g25
sg26
g23
sa(dp541
g2
S'The women believe and the women cry.'
p542
sg4
g5
sg6
g7
sg8
g9
sg10
g40
sg12
g13
sg14
g40
sg15
g40
sg16
(lp543
I2
aI2
aI2
aI1
aI2
aI2
aI1
aI2
aI2
aI2
aI2
aI2
aI2
asg18
g19
sg20
g5
sg21
g40
sg22
g23
sg24
g19
sg26
g23
sa(dp544
g2
S'She knows and the girl cries.'
p545
sg4
g5
sg6
g7
sg8
g9
sg10
g11
sg12
g13
sg14
g11
sg15
g11
sg16
(lp546
I1
aI1
aI2
aI1
aI1
aI2
aI1
aI2
aI1
aI2
aI2
aI1
aI2
asg18
g19
sg20
g39
sg21
g11
sg22
g23
sg24
g19
sg26
g23
sa(dp547
g2
S'The women know that the men sneeze.'
p548
sg4
g5
sg6
g7
sg8
g9
sg10
g40
sg12
g29
sg14
g40
sg15
g40
sg16
(lp549
I2
aI2
aI2
aI1
aI2
aI2
aI2
aI2
aI2
aI1
aI2
aI2
aI2
asg18
g19
sg20
g5
sg21
g40
sg22
g23
sg24
g25
sg26
g23
sa(dp550
g2
S'She knows that the boys sneeze.'
p551
sg4
g5
sg6
g7
sg8
g9
sg10
g40
sg12
g29
sg14
g40
sg15
g11
sg16
(lp552
I1
aI1
aI2
aI1
aI1
aI2
aI2
aI2
aI2
aI1
aI2
aI2
aI2
asg18
g19
sg20
g39
sg21
g11
sg22
g23
sg24
g25
sg26
g23
sa(dp553
g2
S'The women know that she sneezes.'
p554
sg4
g39
sg6
g7
sg8
g9
sg10
g11
sg12
g29
sg14
g11
sg15
g40
sg16
(lp555
I2
aI2
aI2
aI1
aI2
aI2
aI2
aI1
aI1
aI2
aI2
aI1
aI2
asg18
g19
sg20
g5
sg21
g40
sg22
g23
sg24
g19
sg26
g23
sa(dp556
g2
S'He thinks that the man sneezes.'
p557
sg4
g5
sg6
g7
sg8
g9
sg10
g11
sg12
g29
sg14
g11
sg15
g11
sg16
(lp558
I1
aI1
aI1
aI1
aI1
aI2
aI2
aI2
aI1
aI1
aI2
aI1
aI2
asg18
g25
sg20
g39
sg21
g11
sg22
g23
sg24
g25
sg26
g23
sa(dp559
g2
S'The women think that she cries.'
p560
sg4
g39
sg6
g7
sg8
g9
sg10
g11
sg12
g29
sg14
g11
sg15
g40
sg16
(lp561
I2
aI2
aI2
aI1
aI2
aI2
aI2
aI1
aI1
aI2
aI2
aI1
aI2
asg18
g19
sg20
g5
sg21
g40
sg22
g23
sg24
g19
sg26
g23
sa(dp562
g2
S'He believes and she sneezes.'
p563
sg4
g39
sg6
g7
sg8
g9
sg10
g11
sg12
g13
sg14
g11
sg15
g11
sg16
(lp564
I1
aI1
aI1
aI1
aI1
aI2
aI1
aI1
aI1
aI2
aI2
aI1
aI2
asg18
g25
sg20
g39
sg21
g11
sg22
g23
sg24
g19
sg26
g23
sa(dp565
g2
S'The women think that the women cry.'
p566
sg4
g5
sg6
g7
sg8
g9
sg10
g40
sg12
g29
sg14
g40
sg15
g40
sg16
(lp567
I2
aI2
aI2
aI1
aI2
aI2
aI2
aI2
aI2
aI2
aI2
aI2
aI2
asg18
g19
sg20
g5
sg21
g40
sg22
g23
sg24
g19
sg26
g23
sa(dp568
g2
S'The boys know that they cry.'
p569
sg4
g39
sg6
g7
sg8
g9
sg10
g40
sg12
g29
sg14
g40
sg15
g40
sg16
(lp570
I2
aI2
aI1
aI1
aI2
aI2
aI2
aI1
aI2
aI0
aI2
aI2
aI2
asg18
g25
sg20
g5
sg21
g40
sg22
g23
sg24
g42
sg26
g23
sa(dp571
g2
S'The girl knows that the men sneeze.'
p572
sg4
g5
sg6
g7
sg8
g9
sg10
g40
sg12
g29
sg14
g40
sg15
g11
sg16
(lp573
I2
aI1
aI2
aI1
aI1
aI2
aI2
aI2
aI2
aI1
aI2
aI2
aI2
asg18
g19
sg20
g5
sg21
g11
sg22
g23
sg24
g25
sg26
g23
sa(dp574
g2
S'The women believe that she cries.'
p575
sg4
g39
sg6
g7
sg8
g9
sg10
g11
sg12
g29
sg14
g11
sg15
g40
sg16
(lp576
I2
aI2
aI2
aI1
aI2
aI2
aI2
aI1
aI1
aI2
aI2
aI1
aI2
asg18
g19
sg20
g5
sg21
g40
sg22
g23
sg24
g19
sg26
g23
sa(dp577
g2
S'He believes that he sneezes.'
p578
sg4
g39
sg6
g7
sg8
g9
sg10
g11
sg12
g29
sg14
g11
sg15
g11
sg16
(lp579
I1
aI1
aI1
aI1
aI1
aI2
aI2
aI1
aI1
aI1
aI2
aI1
aI2
asg18
g25
sg20
g39
sg21
g11
sg22
g23
sg24
g25
sg26
g23
sa(dp580
g2
S'They know that the boy cries.'
p581
sg4
g5
sg6
g7
sg8
g9
sg10
g11
sg12
g29
sg14
g11
sg15
g40
sg16
(lp582
I1
aI2
aI0
aI1
aI2
aI2
aI2
aI2
aI1
aI1
aI2
aI1
aI2
asg18
g42
sg20
g39
sg21
g40
sg22
g23
sg24
g25
sg26
g23
sa(dp583
g2
S'He believes that they cry.'
p584
sg4
g39
sg6
g7
sg8
g9
sg10
g40
sg12
g29
sg14
g40
sg15
g11
sg16
(lp585
I1
aI1
aI1
aI1
aI1
aI2
aI2
aI1
aI2
aI0
aI2
aI2
aI2
asg18
g25
sg20
g39
sg21
g11
sg22
g23
sg24
g42
sg26
g23
sa(dp586
g2
S'The women think and she cries.'
p587
sg4
g39
sg6
g7
sg8
g9
sg10
g11
sg12
g13
sg14
g11
sg15
g40
sg16
(lp588
I2
aI2
aI2
aI1
aI2
aI2
aI1
aI1
aI1
aI2
aI2
aI1
aI2
asg18
g19
sg20
g5
sg21
g40
sg22
g23
sg24
g19
sg26
g23
sa(dp589
g2
S'The men believe and the women cry.'
p590
sg4
g5
sg6
g7
sg8
g9
sg10
g40
sg12
g13
sg14
g40
sg15
g40
sg16
(lp591
I2
aI2
aI1
aI1
aI2
aI2
aI1
aI2
aI2
aI2
aI2
aI2
aI2
asg18
g25
sg20
g5
sg21
g40
sg22
g23
sg24
g19
sg26
g23
sa(dp592
g2
S'The boys know that she cries.'
p593
sg4
g39
sg6
g7
sg8
g9
sg10
g11
sg12
g29
sg14
g11
sg15
g40
sg16
(lp594
I2
aI2
aI1
aI1
aI2
aI2
aI2
aI1
aI1
aI2
aI2
aI1
aI2
asg18
g25
sg20
g5
sg21
g40
sg22
g23
sg24
g19
sg26
g23
sa(dp595
g2
S'The men believe that the boys sneeze.'
p596
sg4
g5
sg6
g7
sg8
g9
sg10
g40
sg12
g29
sg14
g40
sg15
g40
sg16
(lp597
I2
aI2
aI1
aI1
aI2
aI2
aI2
aI2
aI2
aI1
aI2
aI2
aI2
asg18
g25
sg20
g5
sg21
g40
sg22
g23
sg24
g25
sg26
g23
sa(dp598
g2
S'The women believe and the boy sneezes.'
p599
sg4
g5
sg6
g7
sg8
g9
sg10
g11
sg12
g13
sg14
g11
sg15
g40
sg16
(lp600
I2
aI2
aI2
aI1
aI2
aI2
aI1
aI2
aI1
aI1
aI2
aI1
aI2
asg18
g19
sg20
g5
sg21
g40
sg22
g23
sg24
g25
sg26
g23
sa(dp601
g2
S'The women think that they sneeze.'
p602
sg4
g39
sg6
g7
sg8
g9
sg10
g40
sg12
g29
sg14
g40
sg15
g40
sg16
(lp603
I2
aI2
aI2
aI1
aI2
aI2
aI2
aI1
aI2
aI0
aI2
aI2
aI2
asg18
g19
sg20
g5
sg21
g40
sg22
g23
sg24
g42
sg26
g23
sa(dp604
g2
S'The men believe that the boys cry.'
p605
sg4
g5
sg6
g7
sg8
g9
sg10
g40
sg12
g29
sg14
g40
sg15
g40
sg16
(lp606
I2
aI2
aI1
aI1
aI2
aI2
aI2
aI2
aI2
aI1
aI2
aI2
aI2
asg18
g25
sg20
g5
sg21
g40
sg22
g23
sg24
g25
sg26
g23
sa(dp607
g2
S'He thinks and they cry.'
p608
sg4
g39
sg6
g7
sg8
g9
sg10
g40
sg12
g13
sg14
g40
sg15
g11
sg16
(lp609
I1
aI1
aI1
aI1
aI1
aI2
aI1
aI1
aI2
aI0
aI2
aI2
aI2
asg18
g25
sg20
g39
sg21
g11
sg22
g23
sg24
g42
sg26
g23
sa(dp610
g2
S'He believes that she sneezes.'
p611
sg4
g39
sg6
g7
sg8
g9
sg10
g11
sg12
g29
sg14
g11
sg15
g11
sg16
(lp612
I1
aI1
aI1
aI1
aI1
aI2
aI2
aI1
aI1
aI2
aI2
aI1
aI2
asg18
g25
sg20
g39
sg21
g11
sg22
g23
sg24
g19
sg26
g23
sa(dp613
g2
S'He thinks that the men cry.'
p614
sg4
g5
sg6
g7
sg8
g9
sg10
g40
sg12
g29
sg14
g40
sg15
g11
sg16
(lp615
I1
aI1
aI1
aI1
aI1
aI2
aI2
aI2
aI2
aI1
aI2
aI2
aI2
asg18
g25
sg20
g39
sg21
g11
sg22
g23
sg24
g25
sg26
g23
sa(dp616
g2
S'She knows and the woman sneezes.'
p617
sg4
g5
sg6
g7
sg8
g9
sg10
g11
sg12
g13
sg14
g11
sg15
g11
sg16
(lp618
I1
aI1
aI2
aI1
aI1
aI2
aI1
aI2
aI1
aI2
aI2
aI1
aI2
asg18
g19
sg20
g39
sg21
g11
sg22
g23
sg24
g19
sg26
g23
sa(dp619
g2
S'He knows that the boys sneeze.'
p620
sg4
g5
sg6
g7
sg8
g9
sg10
g40
sg12
g29
sg14
g40
sg15
g11
sg16
(lp621
I1
aI1
aI1
aI1
aI1
aI2
aI2
aI2
aI2
aI1
aI2
aI2
aI2
asg18
g25
sg20
g39
sg21
g11
sg22
g23
sg24
g25
sg26
g23
sa(dp622
g2
S'The boy believes that he cries.'
p623
sg4
g39
sg6
g7
sg8
g9
sg10
g11
sg12
g29
sg14
g11
sg15
g11
sg16
(lp624
I2
aI1
aI1
aI1
aI1
aI2
aI2
aI1
aI1
aI1
aI2
aI1
aI2
asg18
g25
sg20
g5
sg21
g11
sg22
g23
sg24
g25
sg26
g23
sa(dp625
g2
S'She believes that the women cry.'
p626
sg4
g5
sg6
g7
sg8
g9
sg10
g40
sg12
g29
sg14
g40
sg15
g11
sg16
(lp627
I1
aI1
aI2
aI1
aI1
aI2
aI2
aI2
aI2
aI2
aI2
aI2
aI2
asg18
g19
sg20
g39
sg21
g11
sg22
g23
sg24
g19
sg26
g23
sa(dp628
g2
S'The woman believes that the woman cries.'
p629
sg4
g5
sg6
g7
sg8
g9
sg10
g11
sg12
g29
sg14
g11
sg15
g11
sg16
(lp630
I2
aI1
aI2
aI1
aI1
aI2
aI2
aI2
aI1
aI2
aI2
aI1
aI2
asg18
g19
sg20
g5
sg21
g11
sg22
g23
sg24
g19
sg26
g23
sa(dp631
g2
S'The woman knows that the women sneeze.'
p632
sg4
g5
sg6
g7
sg8
g9
sg10
g40
sg12
g29
sg14
g40
sg15
g11
sg16
(lp633
I2
aI1
aI2
aI1
aI1
aI2
aI2
aI2
aI2
aI2
aI2
aI2
aI2
asg18
g19
sg20
g5
sg21
g11
sg22
g23
sg24
g19
sg26
g23
sa(dp634
g2
S'They believe that the women cry.'
p635
sg4
g5
sg6
g7
sg8
g9
sg10
g40
sg12
g29
sg14
g40
sg15
g40
sg16
(lp636
I1
aI2
aI0
aI1
aI2
aI2
aI2
aI2
aI2
aI2
aI2
aI2
aI2
asg18
g42
sg20
g39
sg21
g40
sg22
g23
sg24
g19
sg26
g23
sa(dp637
g2
S'She knows and she cries.'
p638
sg4
g39
sg6
g7
sg8
g9
sg10
g11
sg12
g13
sg14
g11
sg15
g11
sg16
(lp639
I1
aI1
aI2
aI1
aI1
aI2
aI1
aI1
aI1
aI2
aI2
aI1
aI2
asg18
g19
sg20
g39
sg21
g11
sg22
g23
sg24
g19
sg26
g23
sa(dp640
g2
S'He knows and the boy sneezes.'
p641
sg4
g5
sg6
g7
sg8
g9
sg10
g11
sg12
g13
sg14
g11
sg15
g11
sg16
(lp642
I1
aI1
aI1
aI1
aI1
aI2
aI1
aI2
aI1
aI1
aI2
aI1
aI2
asg18
g25
sg20
g39
sg21
g11
sg22
g23
sg24
g25
sg26
g23
sa(dp643
g2
S'The man believes that he sneezes.'
p644
sg4
g39
sg6
g7
sg8
g9
sg10
g11
sg12
g29
sg14
g11
sg15
g11
sg16
(lp645
I2
aI1
aI1
aI1
aI1
aI2
aI2
aI1
aI1
aI1
aI2
aI1
aI2
asg18
g25
sg20
g5
sg21
g11
sg22
g23
sg24
g25
sg26
g23
sa(dp646
g2
S'The women know that the boy sneezes.'
p647
sg4
g5
sg6
g7
sg8
g9
sg10
g11
sg12
g29
sg14
g11
sg15
g40
sg16
(lp648
I2
aI2
aI2
aI1
aI2
aI2
aI2
aI2
aI1
aI1
aI2
aI1
aI2
asg18
g19
sg20
g5
sg21
g40
sg22
g23
sg24
g25
sg26
g23
sa(dp649
g2
S'She believes that she cries.'
p650
sg4
g39
sg6
g7
sg8
g9
sg10
g11
sg12
g29
sg14
g11
sg15
g11
sg16
(lp651
I1
aI1
aI2
aI1
aI1
aI2
aI2
aI1
aI1
aI2
aI2
aI1
aI2
asg18
g19
sg20
g39
sg21
g11
sg22
g23
sg24
g19
sg26
g23
sa(dp652
g2
S'The women know and the women sneeze.'
p653
sg4
g5
sg6
g7
sg8
g9
sg10
g40
sg12
g13
sg14
g40
sg15
g40
sg16
(lp654
I2
aI2
aI2
aI1
aI2
aI2
aI1
aI2
aI2
aI2
aI2
aI2
aI2
asg18
g19
sg20
g5
sg21
g40
sg22
g23
sg24
g19
sg26
g23
sa(dp655
g2
S'He knows and the women cry.'
p656
sg4
g5
sg6
g7
sg8
g9
sg10
g40
sg12
g13
sg14
g40
sg15
g11
sg16
(lp657
I1
aI1
aI1
aI1
aI1
aI2
aI1
aI2
aI2
aI2
aI2
aI2
aI2
asg18
g25
sg20
g39
sg21
g11
sg22
g23
sg24
g19
sg26
g23
sa(dp658
g2
S'They think that he cries.'
p659
sg4
g39
sg6
g7
sg8
g9
sg10
g11
sg12
g29
sg14
g11
sg15
g40
sg16
(lp660
I1
aI2
aI0
aI1
aI2
aI2
aI2
aI1
aI1
aI1
aI2
aI1
aI2
asg18
g42
sg20
g39
sg21
g40
sg22
g23
sg24
g25
sg26
g23
sa(dp661
g2
S'The woman believes and they sneeze.'
p662
sg4
g39
sg6
g7
sg8
g9
sg10
g40
sg12
g13
sg14
g40
sg15
g11
sg16
(lp663
I2
aI1
aI2
aI1
aI1
aI2
aI1
aI1
aI2
aI0
aI2
aI2
aI2
asg18
g19
sg20
g5
sg21
g11
sg22
g23
sg24
g42
sg26
g23
sa(dp664
g2
S'She knows that they cry.'
p665
sg4
g39
sg6
g7
sg8
g9
sg10
g40
sg12
g29
sg14
g40
sg15
g11
sg16
(lp666
I1
aI1
aI2
aI1
aI1
aI2
aI2
aI1
aI2
aI0
aI2
aI2
aI2
asg18
g19
sg20
g39
sg21
g11
sg22
g23
sg24
g42
sg26
g23
sa(dp667
g2
S'She believes and they sneeze.'
p668
sg4
g39
sg6
g7
sg8
g9
sg10
g40
sg12
g13
sg14
g40
sg15
g11
sg16
(lp669
I1
aI1
aI2
aI1
aI1
aI2
aI1
aI1
aI2
aI0
aI2
aI2
aI2
asg18
g19
sg20
g39
sg21
g11
sg22
g23
sg24
g42
sg26
g23
sa(dp670
g2
S'He knows that they sneeze.'
p671
sg4
g39
sg6
g7
sg8
g9
sg10
g40
sg12
g29
sg14
g40
sg15
g11
sg16
(lp672
I1
aI1
aI1
aI1
aI1
aI2
aI2
aI1
aI2
aI0
aI2
aI2
aI2
asg18
g25
sg20
g39
sg21
g11
sg22
g23
sg24
g42
sg26
g23
sa(dp673
g2
S'The boy believes that he sneezes.'
p674
sg4
g39
sg6
g7
sg8
g9
sg10
g11
sg12
g29
sg14
g11
sg15
g11
sg16
(lp675
I2
aI1
aI1
aI1
aI1
aI2
aI2
aI1
aI1
aI1
aI2
aI1
aI2
asg18
g25
sg20
g5
sg21
g11
sg22
g23
sg24
g25
sg26
g23
sa(dp676
g2
S'They think that the boy sneezes.'
p677
sg4
g5
sg6
g7
sg8
g9
sg10
g11
sg12
g29
sg14
g11
sg15
g40
sg16
(lp678
I1
aI2
aI0
aI1
aI2
aI2
aI2
aI2
aI1
aI1
aI2
aI1
aI2
asg18
g42
sg20
g39
sg21
g40
sg22
g23
sg24
g25
sg26
g23
sa(dp679
g2
S'They think and the man sneezes.'
p680
sg4
g5
sg6
g7
sg8
g9
sg10
g11
sg12
g13
sg14
g11
sg15
g40
sg16
(lp681
I1
aI2
aI0
aI1
aI2
aI2
aI1
aI2
aI1
aI1
aI2
aI1
aI2
asg18
g42
sg20
g39
sg21
g40
sg22
g23
sg24
g25
sg26
g23
sa(dp682
g2
S'He believes and the boy sneezes.'
p683
sg4
g5
sg6
g7
sg8
g9
sg10
g11
sg12
g13
sg14
g11
sg15
g11
sg16
(lp684
I1
aI1
aI1
aI1
aI1
aI2
aI1
aI2
aI1
aI1
aI2
aI1
aI2
asg18
g25
sg20
g39
sg21
g11
sg22
g23
sg24
g25
sg26
g23
sa(dp685
g2
S'The girl thinks that the women sneeze.'
p686
sg4
g5
sg6
g7
sg8
g9
sg10
g40
sg12
g29
sg14
g40
sg15
g11
sg16
(lp687
I2
aI1
aI2
aI1
aI1
aI2
aI2
aI2
aI2
aI2
aI2
aI2
aI2
asg18
g19
sg20
g5
sg21
g11
sg22
g23
sg24
g19
sg26
g23
sa(dp688
g2
S'They know that she sneezes.'
p689
sg4
g39
sg6
g7
sg8
g9
sg10
g11
sg12
g29
sg14
g11
sg15
g40
sg16
(lp690
I1
aI2
aI0
aI1
aI2
aI2
aI2
aI1
aI1
aI2
aI2
aI1
aI2
asg18
g42
sg20
g39
sg21
g40
sg22
g23
sg24
g19
sg26
g23
sa(dp691
g2
S'The girl thinks that he cries.'
p692
sg4
g39
sg6
g7
sg8
g9
sg10
g11
sg12
g29
sg14
g11
sg15
g11
sg16
(lp693
I2
aI1
aI2
aI1
aI1
aI2
aI2
aI1
aI1
aI1
aI2
aI1
aI2
asg18
g19
sg20
g5
sg21
g11
sg22
g23
sg24
g25
sg26
g23
sa(dp694
g2
S'The women know and the girl cries.'
p695
sg4
g5
sg6
g7
sg8
g9
sg10
g11
sg12
g13
sg14
g11
sg15
g40
sg16
(lp696
I2
aI2
aI2
aI1
aI2
aI2
aI1
aI2
aI1
aI2
aI2
aI1
aI2
asg18
g19
sg20
g5
sg21
g40
sg22
g23
sg24
g19
sg26
g23
sa(dp697
g2
S'They believe and he sneezes.'
p698
sg4
g39
sg6
g7
sg8
g9
sg10
g11
sg12
g13
sg14
g11
sg15
g40
sg16
(lp699
I1
aI2
aI0
aI1
aI2
aI2
aI1
aI1
aI1
aI1
aI2
aI1
aI2
asg18
g42
sg20
g39
sg21
g40
sg22
g23
sg24
g25
sg26
g23
sa(dp700
g2
S'The women know that they cry.'
p701
sg4
g39
sg6
g7
sg8
g9
sg10
g40
sg12
g29
sg14
g40
sg15
g40
sg16
(lp702
I2
aI2
aI2
aI1
aI2
aI2
aI2
aI1
aI2
aI0
aI2
aI2
aI2
asg18
g19
sg20
g5
sg21
g40
sg22
g23
sg24
g42
sg26
g23
sa(dp703
g2
S'The boy knows that they sneeze.'
p704
sg4
g39
sg6
g7
sg8
g9
sg10
g40
sg12
g29
sg14
g40
sg15
g11
sg16
(lp705
I2
aI1
aI1
aI1
aI1
aI2
aI2
aI1
aI2
aI0
aI2
aI2
aI2
asg18
g25
sg20
g5
sg21
g11
sg22
g23
sg24
g42
sg26
g23
sa(dp706
g2
S'The women know and she sneezes.'
p707
sg4
g39
sg6
g7
sg8
g9
sg10
g11
sg12
g13
sg14
g11
sg15
g40
sg16
(lp708
I2
aI2
aI2
aI1
aI2
aI2
aI1
aI1
aI1
aI2
aI2
aI1
aI2
asg18
g19
sg20
g5
sg21
g40
sg22
g23
sg24
g19
sg26
g23
sa(dp709
g2
S'They believe and they cry.'
p710
sg4
g39
sg6
g7
sg8
g9
sg10
g40
sg12
g13
sg14
g40
sg15
g40
sg16
(lp711
I1
aI2
aI0
aI1
aI2
aI2
aI1
aI1
aI2
aI0
aI2
aI2
aI2
asg18
g42
sg20
g39
sg21
g40
sg22
g23
sg24
g42
sg26
g23
sa(dp712
g2
S'The boy believes and the women cry.'
p713
sg4
g5
sg6
g7
sg8
g9
sg10
g40
sg12
g13
sg14
g40
sg15
g11
sg16
(lp714
I2
aI1
aI1
aI1
aI1
aI2
aI1
aI2
aI2
aI2
aI2
aI2
aI2
asg18
g25
sg20
g5
sg21
g11
sg22
g23
sg24
g19
sg26
g23
sa(dp715
g2
S'The girl knows and they sneeze.'
p716
sg4
g39
sg6
g7
sg8
g9
sg10
g40
sg12
g13
sg14
g40
sg15
g11
sg16
(lp717
I2
aI1
aI2
aI1
aI1
aI2
aI1
aI1
aI2
aI0
aI2
aI2
aI2
asg18
g19
sg20
g5
sg21
g11
sg22
g23
sg24
g42
sg26
g23
sa(dp718
g2
S'The man knows that the women sneeze.'
p719
sg4
g5
sg6
g7
sg8
g9
sg10
g40
sg12
g29
sg14
g40
sg15
g11
sg16
(lp720
I2
aI1
aI1
aI1
aI1
aI2
aI2
aI2
aI2
aI2
aI2
aI2
aI2
asg18
g25
sg20
g5
sg21
g11
sg22
g23
sg24
g19
sg26
g23
sa(dp721
g2
S'The girl thinks and the women cry.'
p722
sg4
g5
sg6
g7
sg8
g9
sg10
g40
sg12
g13
sg14
g40
sg15
g11
sg16
(lp723
I2
aI1
aI2
aI1
aI1
aI2
aI1
aI2
aI2
aI2
aI2
aI2
aI2
asg18
g19
sg20
g5
sg21
g11
sg22
g23
sg24
g19
sg26
g23
sa(dp724
g2
S'They think and she sneezes.'
p725
sg4
g39
sg6
g7
sg8
g9
sg10
g11
sg12
g13
sg14
g11
sg15
g40
sg16
(lp726
I1
aI2
aI0
aI1
aI2
aI2
aI1
aI1
aI1
aI2
aI2
aI1
aI2
asg18
g42
sg20
g39
sg21
g40
sg22
g23
sg24
g19
sg26
g23
sa(dp727
g2
S'The girl thinks that she sneezes.'
p728
sg4
g39
sg6
g7
sg8
g9
sg10
g11
sg12
g29
sg14
g11
sg15
g11
sg16
(lp729
I2
aI1
aI2
aI1
aI1
aI2
aI2
aI1
aI1
aI2
aI2
aI1
aI2
asg18
g19
sg20
g5
sg21
g11
sg22
g23
sg24
g19
sg26
g23
sa(dp730
g2
S'She thinks and he sneezes.'
p731
sg4
g39
sg6
g7
sg8
g9
sg10
g11
sg12
g13
sg14
g11
sg15
g11
sg16
(lp732
I1
aI1
aI2
aI1
aI1
aI2
aI1
aI1
aI1
aI1
aI2
aI1
aI2
asg18
g19
sg20
g39
sg21
g11
sg22
g23
sg24
g25
sg26
g23
sa(dp733
g2
S'The women believe that the boys cry.'
p734
sg4
g5
sg6
g7
sg8
g9
sg10
g40
sg12
g29
sg14
g40
sg15
g40
sg16
(lp735
I2
aI2
aI2
aI1
aI2
aI2
aI2
aI2
aI2
aI1
aI2
aI2
aI2
asg18
g19
sg20
g5
sg21
g40
sg22
g23
sg24
g25
sg26
g23
sa(dp736
g2
S'The men think that she sneezes.'
p737
sg4
g39
sg6
g7
sg8
g9
sg10
g11
sg12
g29
sg14
g11
sg15
g40
sg16
(lp738
I2
aI2
aI1
aI1
aI2
aI2
aI2
aI1
aI1
aI2
aI2
aI1
aI2
asg18
g25
sg20
g5
sg21
g40
sg22
g23
sg24
g19
sg26
g23
sa(dp739
g2
S'She knows that they sneeze.'
p740
sg4
g39
sg6
g7
sg8
g9
sg10
g40
sg12
g29
sg14
g40
sg15
g11
sg16
(lp741
I1
aI1
aI2
aI1
aI1
aI2
aI2
aI1
aI2
aI0
aI2
aI2
aI2
asg18
g19
sg20
g39
sg21
g11
sg22
g23
sg24
g42
sg26
g23
sa(dp742
g2
S'He thinks and the women sneeze.'
p743
sg4
g5
sg6
g7
sg8
g9
sg10
g40
sg12
g13
sg14
g40
sg15
g11
sg16
(lp744
I1
aI1
aI1
aI1
aI1
aI2
aI1
aI2
aI2
aI2
aI2
aI2
aI2
asg18
g25
sg20
g39
sg21
g11
sg22
g23
sg24
g19
sg26
g23
sa(dp745
g2
S'The girl thinks and the women sneeze.'
p746
sg4
g5
sg6
g7
sg8
g9
sg10
g40
sg12
g13
sg14
g40
sg15
g11
sg16
(lp747
I2
aI1
aI2
aI1
aI1
aI2
aI1
aI2
aI2
aI2
aI2
aI2
aI2
asg18
g19
sg20
g5
sg21
g11
sg22
g23
sg24
g19
sg26
g23
sa(dp748
g2
S'The girl knows that the women cry.'
p749
sg4
g5
sg6
g7
sg8
g9
sg10
g40
sg12
g29
sg14
g40
sg15
g11
sg16
(lp750
I2
aI1
aI2
aI1
aI1
aI2
aI2
aI2
aI2
aI2
aI2
aI2
aI2
asg18
g19
sg20
g5
sg21
g11
sg22
g23
sg24
g19
sg26
g23
sa(dp751
g2
S'She knows and they cry.'
p752
sg4
g39
sg6
g7
sg8
g9
sg10
g40
sg12
g13
sg14
g40
sg15
g11
sg16
(lp753
I1
aI1
aI2
aI1
aI1
aI2
aI1
aI1
aI2
aI0
aI2
aI2
aI2
asg18
g19
sg20
g39
sg21
g11
sg22
g23
sg24
g42
sg26
g23
sa(dp754
g2
S'He knows that he cries.'
p755
sg4
g39
sg6
g7
sg8
g9
sg10
g11
sg12
g29
sg14
g11
sg15
g11
sg16
(lp756
I1
aI1
aI1
aI1
aI1
aI2
aI2
aI1
aI1
aI1
aI2
aI1
aI2
asg18
g25
sg20
g39
sg21
g11
sg22
g23
sg24
g25
sg26
g23
sa(dp757
g2
S'The men think and the women cry.'
p758
sg4
g5
sg6
g7
sg8
g9
sg10
g40
sg12
g13
sg14
g40
sg15
g40
sg16
(lp759
I2
aI2
aI1
aI1
aI2
aI2
aI1
aI2
aI2
aI2
aI2
aI2
aI2
asg18
g25
sg20
g5
sg21
g40
sg22
g23
sg24
g19
sg26
g23
sa(dp760
g2
S'The women believe and the woman sneezes.'
p761
sg4
g5
sg6
g7
sg8
g9
sg10
g11
sg12
g13
sg14
g11
sg15
g40
sg16
(lp762
I2
aI2
aI2
aI1
aI2
aI2
aI1
aI2
aI1
aI2
aI2
aI1
aI2
asg18
g19
sg20
g5
sg21
g40
sg22
g23
sg24
g19
sg26
g23
sa(dp763
g2
S'The man knows that the women cry.'
p764
sg4
g5
sg6
g7
sg8
g9
sg10
g40
sg12
g29
sg14
g40
sg15
g11
sg16
(lp765
I2
aI1
aI1
aI1
aI1
aI2
aI2
aI2
aI2
aI2
aI2
aI2
aI2
asg18
g25
sg20
g5
sg21
g11
sg22
g23
sg24
g19
sg26
g23
sa(dp766
g2
S'She knows and the woman cries.'
p767
sg4
g5
sg6
g7
sg8
g9
sg10
g11
sg12
g13
sg14
g11
sg15
g11
sg16
(lp768
I1
aI1
aI2
aI1
aI1
aI2
aI1
aI2
aI1
aI2
aI2
aI1
aI2
asg18
g19
sg20
g39
sg21
g11
sg22
g23
sg24
g19
sg26
g23
sa(dp769
g2
S'He believes that the women cry.'
p770
sg4
g5
sg6
g7
sg8
g9
sg10
g40
sg12
g29
sg14
g40
sg15
g11
sg16
(lp771
I1
aI1
aI1
aI1
aI1
aI2
aI2
aI2
aI2
aI2
aI2
aI2
aI2
asg18
g25
sg20
g39
sg21
g11
sg22
g23
sg24
g19
sg26
g23
sa(dp772
g2
S'She believes that the women sneeze.'
p773
sg4
g5
sg6
g7
sg8
g9
sg10
g40
sg12
g29
sg14
g40
sg15
g11
sg16
(lp774
I1
aI1
aI2
aI1
aI1
aI2
aI2
aI2
aI2
aI2
aI2
aI2
aI2
asg18
g19
sg20
g39
sg21
g11
sg22
g23
sg24
g19
sg26
g23
sa(dp775
g2
S'She knows and they sneeze.'
p776
sg4
g39
sg6
g7
sg8
g9
sg10
g40
sg12
g13
sg14
g40
sg15
g11
sg16
(lp777
I1
aI1
aI2
aI1
aI1
aI2
aI1
aI1
aI2
aI0
aI2
aI2
aI2
asg18
g19
sg20
g39
sg21
g11
sg22
g23
sg24
g42
sg26
g23
sa(dp778
g2
S'They believe and the woman cries.'
p779
sg4
g5
sg6
g7
sg8
g9
sg10
g11
sg12
g13
sg14
g11
sg15
g40
sg16
(lp780
I1
aI2
aI0
aI1
aI2
aI2
aI1
aI2
aI1
aI2
aI2
aI1
aI2
asg18
g42
sg20
g39
sg21
g40
sg22
g23
sg24
g19
sg26
g23
sa(dp781
g2
S'They believe and she sneezes.'
p782
sg4
g39
sg6
g7
sg8
g9
sg10
g11
sg12
g13
sg14
g11
sg15
g40
sg16
(lp783
I1
aI2
aI0
aI1
aI2
aI2
aI1
aI1
aI1
aI2
aI2
aI1
aI2
asg18
g42
sg20
g39
sg21
g40
sg22
g23
sg24
g19
sg26
g23
sa(dp784
g2
S'They think and the woman cries.'
p785
sg4
g5
sg6
g7
sg8
g9
sg10
g11
sg12
g13
sg14
g11
sg15
g40
sg16
(lp786
I1
aI2
aI0
aI1
aI2
aI2
aI1
aI2
aI1
aI2
aI2
aI1
aI2
asg18
g42
sg20
g39
sg21
g40
sg22
g23
sg24
g19
sg26
g23
sa(dp787
g2
S'The women know that the woman cries.'
p788
sg4
g5
sg6
g7
sg8
g9
sg10
g11
sg12
g29
sg14
g11
sg15
g40
sg16
(lp789
I2
aI2
aI2
aI1
aI2
aI2
aI2
aI2
aI1
aI2
aI2
aI1
aI2
asg18
g19
sg20
g5
sg21
g40
sg22
g23
sg24
g19
sg26
g23
sa(dp790
g2
S'The man believes and the women sneeze.'
p791
sg4
g5
sg6
g7
sg8
g9
sg10
g40
sg12
g13
sg14
g40
sg15
g11
sg16
(lp792
I2
aI1
aI1
aI1
aI1
aI2
aI1
aI2
aI2
aI2
aI2
aI2
aI2
asg18
g25
sg20
g5
sg21
g11
sg22
g23
sg24
g19
sg26
g23
sa(dp793
g2
S'The man thinks that they cry.'
p794
sg4
g39
sg6
g7
sg8
g9
sg10
g40
sg12
g29
sg14
g40
sg15
g11
sg16
(lp795
I2
aI1
aI1
aI1
aI1
aI2
aI2
aI1
aI2
aI0
aI2
aI2
aI2
asg18
g25
sg20
g5
sg21
g11
sg22
g23
sg24
g42
sg26
g23
sa(dp796
g2
S'He thinks and he sneezes.'
p797
sg4
g39
sg6
g7
sg8
g9
sg10
g11
sg12
g13
sg14
g11
sg15
g11
sg16
(lp798
I1
aI1
aI1
aI1
aI1
aI2
aI1
aI1
aI1
aI1
aI2
aI1
aI2
asg18
g25
sg20
g39
sg21
g11
sg22
g23
sg24
g25
sg26
g23
sa(dp799
g2
S'She believes that the boy sneezes.'
p800
sg4
g5
sg6
g7
sg8
g9
sg10
g11
sg12
g29
sg14
g11
sg15
g11
sg16
(lp801
I1
aI1
aI2
aI1
aI1
aI2
aI2
aI2
aI1
aI1
aI2
aI1
aI2
asg18
g19
sg20
g39
sg21
g11
sg22
g23
sg24
g25
sg26
g23
sa(dp802
g2
S'She knows that the boy cries.'
p803
sg4
g5
sg6
g7
sg8
g9
sg10
g11
sg12
g29
sg14
g11
sg15
g11
sg16
(lp804
I1
aI1
aI2
aI1
aI1
aI2
aI2
aI2
aI1
aI1
aI2
aI1
aI2
asg18
g19
sg20
g39
sg21
g11
sg22
g23
sg24
g25
sg26
g23
sa(dp805
g2
S'He thinks that she cries.'
p806
sg4
g39
sg6
g7
sg8
g9
sg10
g11
sg12
g29
sg14
g11
sg15
g11
sg16
(lp807
I1
aI1
aI1
aI1
aI1
aI2
aI2
aI1
aI1
aI2
aI2
aI1
aI2
asg18
g25
sg20
g39
sg21
g11
sg22
g23
sg24
g19
sg26
g23
sa(dp808
g2
S'The women believe that he cries.'
p809
sg4
g39
sg6
g7
sg8
g9
sg10
g11
sg12
g29
sg14
g11
sg15
g40
sg16
(lp810
I2
aI2
aI2
aI1
aI2
aI2
aI2
aI1
aI1
aI1
aI2
aI1
aI2
asg18
g19
sg20
g5
sg21
g40
sg22
g23
sg24
g25
sg26
g23
sa(dp811
g2
S'She believes and the boy cries.'
p812
sg4
g5
sg6
g7
sg8
g9
sg10
g11
sg12
g13
sg14
g11
sg15
g11
sg16
(lp813
I1
aI1
aI2
aI1
aI1
aI2
aI1
aI2
aI1
aI1
aI2
aI1
aI2
asg18
g19
sg20
g39
sg21
g11
sg22
g23
sg24
g25
sg26
g23
sa(dp814
g2
S'She believes that she sneezes.'
p815
sg4
g39
sg6
g7
sg8
g9
sg10
g11
sg12
g29
sg14
g11
sg15
g11
sg16
(lp816
I1
aI1
aI2
aI1
aI1
aI2
aI2
aI1
aI1
aI2
aI2
aI1
aI2
asg18
g19
sg20
g39
sg21
g11
sg22
g23
sg24
g19
sg26
g23
sa(dp817
g2
S'They know and the women cry.'
p818
sg4
g5
sg6
g7
sg8
g9
sg10
g40
sg12
g13
sg14
g40
sg15
g40
sg16
(lp819
I1
aI2
aI0
aI1
aI2
aI2
aI1
aI2
aI2
aI2
aI2
aI2
aI2
asg18
g42
sg20
g39
sg21
g40
sg22
g23
sg24
g19
sg26
g23
sa(dp820
g2
S'The women believe that the girl cries.'
p821
sg4
g5
sg6
g7
sg8
g9
sg10
g11
sg12
g29
sg14
g11
sg15
g40
sg16
(lp822
I2
aI2
aI2
aI1
aI2
aI2
aI2
aI2
aI1
aI2
aI2
aI1
aI2
asg18
g19
sg20
g5
sg21
g40
sg22
g23
sg24
g19
sg26
g23
sa(dp823
g2
S'They believe that she cries.'
p824
sg4
g39
sg6
g7
sg8
g9
sg10
g11
sg12
g29
sg14
g11
sg15
g40
sg16
(lp825
I1
aI2
aI0
aI1
aI2
aI2
aI2
aI1
aI1
aI2
aI2
aI1
aI2
asg18
g42
sg20
g39
sg21
g40
sg22
g23
sg24
g19
sg26
g23
sa(dp826
g2
S'The women know and the women cry.'
p827
sg4
g5
sg6
g7
sg8
g9
sg10
g40
sg12
g13
sg14
g40
sg15
g40
sg16
(lp828
I2
aI2
aI2
aI1
aI2
aI2
aI1
aI2
aI2
aI2
aI2
aI2
aI2
asg18
g19
sg20
g5
sg21
g40
sg22
g23
sg24
g19
sg26
g23
sa(dp829
g2
S'The woman believes and he sneezes.'
p830
sg4
g39
sg6
g7
sg8
g9
sg10
g11
sg12
g13
sg14
g11
sg15
g11
sg16
(lp831
I2
aI1
aI2
aI1
aI1
aI2
aI1
aI1
aI1
aI1
aI2
aI1
aI2
asg18
g19
sg20
g5
sg21
g11
sg22
g23
sg24
g25
sg26
g23
sa(dp832
g2
S'The women think that he cries.'
p833
sg4
g39
sg6
g7
sg8
g9
sg10
g11
sg12
g29
sg14
g11
sg15
g40
sg16
(lp834
I2
aI2
aI2
aI1
aI2
aI2
aI2
aI1
aI1
aI1
aI2
aI1
aI2
asg18
g19
sg20
g5
sg21
g40
sg22
g23
sg24
g25
sg26
g23
sa(dp835
g2
S'She knows and she sneezes.'
p836
sg4
g39
sg6
g7
sg8
g9
sg10
g11
sg12
g13
sg14
g11
sg15
g11
sg16
(lp837
I1
aI1
aI2
aI1
aI1
aI2
aI1
aI1
aI1
aI2
aI2
aI1
aI2
asg18
g19
sg20
g39
sg21
g11
sg22
g23
sg24
g19
sg26
g23
sa(dp838
g2
S'They know that the girl cries.'
p839
sg4
g5
sg6
g7
sg8
g9
sg10
g11
sg12
g29
sg14
g11
sg15
g40
sg16
(lp840
I1
aI2
aI0
aI1
aI2
aI2
aI2
aI2
aI1
aI2
aI2
aI1
aI2
asg18
g42
sg20
g39
sg21
g40
sg22
g23
sg24
g19
sg26
g23
sa(dp841
g2
S'They know and she cries.'
p842
sg4
g39
sg6
g7
sg8
g9
sg10
g11
sg12
g13
sg14
g11
sg15
g40
sg16
(lp843
I1
aI2
aI0
aI1
aI2
aI2
aI1
aI1
aI1
aI2
aI2
aI1
aI2
asg18
g42
sg20
g39
sg21
g40
sg22
g23
sg24
g19
sg26
g23
sa(dp844
g2
S'They know that the man cries.'
p845
sg4
g5
sg6
g7
sg8
g9
sg10
g11
sg12
g29
sg14
g11
sg15
g40
sg16
(lp846
I1
aI2
aI0
aI1
aI2
aI2
aI2
aI2
aI1
aI1
aI2
aI1
aI2
asg18
g42
sg20
g39
sg21
g40
sg22
g23
sg24
g25
sg26
g23
sa(dp847
g2
S'They think and they cry.'
p848
sg4
g39
sg6
g7
sg8
g9
sg10
g40
sg12
g13
sg14
g40
sg15
g40
sg16
(lp849
I1
aI2
aI0
aI1
aI2
aI2
aI1
aI1
aI2
aI0
aI2
aI2
aI2
asg18
g42
sg20
g39
sg21
g40
sg22
g23
sg24
g42
sg26
g23
sa(dp850
g2
S'They believe that the men cry.'
p851
sg4
g5
sg6
g7
sg8
g9
sg10
g40
sg12
g29
sg14
g40
sg15
g40
sg16
(lp852
I1
aI2
aI0
aI1
aI2
aI2
aI2
aI2
aI2
aI1
aI2
aI2
aI2
asg18
g42
sg20
g39
sg21
g40
sg22
g23
sg24
g25
sg26
g23
sa(dp853
g2
S'They believe that the woman sneezes.'
p854
sg4
g5
sg6
g7
sg8
g9
sg10
g11
sg12
g29
sg14
g11
sg15
g40
sg16
(lp855
I1
aI2
aI0
aI1
aI2
aI2
aI2
aI2
aI1
aI2
aI2
aI1
aI2
asg18
g42
sg20
g39
sg21
g40
sg22
g23
sg24
g19
sg26
g23
sa(dp856
g2
S'The girl thinks and he sneezes.'
p857
sg4
g39
sg6
g7
sg8
g9
sg10
g11
sg12
g13
sg14
g11
sg15
g11
sg16
(lp858
I2
aI1
aI2
aI1
aI1
aI2
aI1
aI1
aI1
aI1
aI2
aI1
aI2
asg18
g19
sg20
g5
sg21
g11
sg22
g23
sg24
g25
sg26
g23
sa(dp859
g2
S'They know and they sneeze.'
p860
sg4
g39
sg6
g7
sg8
g9
sg10
g40
sg12
g13
sg14
g40
sg15
g40
sg16
(lp861
I1
aI2
aI0
aI1
aI2
aI2
aI1
aI1
aI2
aI0
aI2
aI2
aI2
asg18
g42
sg20
g39
sg21
g40
sg22
g23
sg24
g42
sg26
g23
sa(dp862
g2
S'They believe that the man sneezes.'
p863
sg4
g5
sg6
g7
sg8
g9
sg10
g11
sg12
g29
sg14
g11
sg15
g40
sg16
(lp864
I1
aI2
aI0
aI1
aI2
aI2
aI2
aI2
aI1
aI1
aI2
aI1
aI2
asg18
g42
sg20
g39
sg21
g40
sg22
g23
sg24
g25
sg26
g23
sa(dp865
g2
S'She knows and he cries.'
p866
sg4
g39
sg6
g7
sg8
g9
sg10
g11
sg12
g13
sg14
g11
sg15
g11
sg16
(lp867
I1
aI1
aI2
aI1
aI1
aI2
aI1
aI1
aI1
aI1
aI2
aI1
aI2
asg18
g19
sg20
g39
sg21
g11
sg22
g23
sg24
g25
sg26
g23
sa(dp868
g2
S'The women believe that they sneeze.'
p869
sg4
g39
sg6
g7
sg8
g9
sg10
g40
sg12
g29
sg14
g40
sg15
g40
sg16
(lp870
I2
aI2
aI2
aI1
aI2
aI2
aI2
aI1
aI2
aI0
aI2
aI2
aI2
asg18
g19
sg20
g5
sg21
g40
sg22
g23
sg24
g42
sg26
g23
sa(dp871
g2
S'The women believe and she sneezes.'
p872
sg4
g39
sg6
g7
sg8
g9
sg10
g11
sg12
g13
sg14
g11
sg15
g40
sg16
(lp873
I2
aI2
aI2
aI1
aI2
aI2
aI1
aI1
aI1
aI2
aI2
aI1
aI2
asg18
g19
sg20
g5
sg21
g40
sg22
g23
sg24
g19
sg26
g23
sa(dp874
g2
S'He believes and they sneeze.'
p875
sg4
g39
sg6
g7
sg8
g9
sg10
g40
sg12
g13
sg14
g40
sg15
g11
sg16
(lp876
I1
aI1
aI1
aI1
aI1
aI2
aI1
aI1
aI2
aI0
aI2
aI2
aI2
asg18
g25
sg20
g39
sg21
g11
sg22
g23
sg24
g42
sg26
g23
sa(dp877
g2
S'They know that they cry.'
p878
sg4
g39
sg6
g7
sg8
g9
sg10
g40
sg12
g29
sg14
g40
sg15
g40
sg16
(lp879
I1
aI2
aI0
aI1
aI2
aI2
aI2
aI1
aI2
aI0
aI2
aI2
aI2
asg18
g42
sg20
g39
sg21
g40
sg22
g23
sg24
g42
sg26
g23
sa(dp880
g2
S'He knows that the women cry.'
p881
sg4
g5
sg6
g7
sg8
g9
sg10
g40
sg12
g29
sg14
g40
sg15
g11
sg16
(lp882
I1
aI1
aI1
aI1
aI1
aI2
aI2
aI2
aI2
aI2
aI2
aI2
aI2
asg18
g25
sg20
g39
sg21
g11
sg22
g23
sg24
g19
sg26
g23
sa(dp883
g2
S'They believe that the woman cries.'
p884
sg4
g5
sg6
g7
sg8
g9
sg10
g11
sg12
g29
sg14
g11
sg15
g40
sg16
(lp885
I1
aI2
aI0
aI1
aI2
aI2
aI2
aI2
aI1
aI2
aI2
aI1
aI2
asg18
g42
sg20
g39
sg21
g40
sg22
g23
sg24
g19
sg26
g23
sa(dp886
g2
S'She thinks and the women sneeze.'
p887
sg4
g5
sg6
g7
sg8
g9
sg10
g40
sg12
g13
sg14
g40
sg15
g11
sg16
(lp888
I1
aI1
aI2
aI1
aI1
aI2
aI1
aI2
aI2
aI2
aI2
aI2
aI2
asg18
g19
sg20
g39
sg21
g11
sg22
g23
sg24
g19
sg26
g23
sa(dp889
g2
S'She believes that he sneezes.'
p890
sg4
g39
sg6
g7
sg8
g9
sg10
g11
sg12
g29
sg14
g11
sg15
g11
sg16
(lp891
I1
aI1
aI2
aI1
aI1
aI2
aI2
aI1
aI1
aI1
aI2
aI1
aI2
asg18
g19
sg20
g39
sg21
g11
sg22
g23
sg24
g25
sg26
g23
sa(dp892
g2
S'They think and he sneezes.'
p893
sg4
g39
sg6
g7
sg8
g9
sg10
g11
sg12
g13
sg14
g11
sg15
g40
sg16
(lp894
I1
aI2
aI0
aI1
aI2
aI2
aI1
aI1
aI1
aI1
aI2
aI1
aI2
asg18
g42
sg20
g39
sg21
g40
sg22
g23
sg24
g25
sg26
g23
sa(dp895
g2
S'They know that he sneezes.'
p896
sg4
g39
sg6
g7
sg8
g9
sg10
g11
sg12
g29
sg14
g11
sg15
g40
sg16
(lp897
I1
aI2
aI0
aI1
aI2
aI2
aI2
aI1
aI1
aI1
aI2
aI1
aI2
asg18
g42
sg20
g39
sg21
g40
sg22
g23
sg24
g25
sg26
g23
sa(dp898
g2
S'He knows and she cries.'
p899
sg4
g39
sg6
g7
sg8
g9
sg10
g11
sg12
g13
sg14
g11
sg15
g11
sg16
(lp900
I1
aI1
aI1
aI1
aI1
aI2
aI1
aI1
aI1
aI2
aI2
aI1
aI2
asg18
g25
sg20
g39
sg21
g11
sg22
g23
sg24
g19
sg26
g23
sa(dp901
g2
S'They believe and the boy cries.'
p902
sg4
g5
sg6
g7
sg8
g9
sg10
g11
sg12
g13
sg14
g11
sg15
g40
sg16
(lp903
I1
aI2
aI0
aI1
aI2
aI2
aI1
aI2
aI1
aI1
aI2
aI1
aI2
asg18
g42
sg20
g39
sg21
g40
sg22
g23
sg24
g25
sg26
g23
sa(dp904
g2
S'They know that the women cry.'
p905
sg4
g5
sg6
g7
sg8
g9
sg10
g40
sg12
g29
sg14
g40
sg15
g40
sg16
(lp906
I1
aI2
aI0
aI1
aI2
aI2
aI2
aI2
aI2
aI2
aI2
aI2
aI2
asg18
g42
sg20
g39
sg21
g40
sg22
g23
sg24
g19
sg26
g23
sa(dp907
g2
S'They know and he sneezes.'
p908
sg4
g39
sg6
g7
sg8
g9
sg10
g11
sg12
g13
sg14
g11
sg15
g40
sg16
(lp909
I1
aI2
aI0
aI1
aI2
aI2
aI1
aI1
aI1
aI1
aI2
aI1
aI2
asg18
g42
sg20
g39
sg21
g40
sg22
g23
sg24
g25
sg26
g23
sa(dp910
g2
S'They know and the boy sneezes.'
p911
sg4
g5
sg6
g7
sg8
g9
sg10
g11
sg12
g13
sg14
g11
sg15
g40
sg16
(lp912
I1
aI2
aI0
aI1
aI2
aI2
aI1
aI2
aI1
aI1
aI2
aI1
aI2
asg18
g42
sg20
g39
sg21
g40
sg22
g23
sg24
g25
sg26
g23
sa(dp913
g2
S'They believe that they sneeze.'
p914
sg4
g39
sg6
g7
sg8
g9
sg10
g40
sg12
g29
sg14
g40
sg15
g40
sg16
(lp915
I1
aI2
aI0
aI1
aI2
aI2
aI2
aI1
aI2
aI0
aI2
aI2
aI2
asg18
g42
sg20
g39
sg21
g40
sg22
g23
sg24
g42
sg26
g23
sa(dp916
g2
S'He thinks and he cries.'
p917
sg4
g39
sg6
g7
sg8
g9
sg10
g11
sg12
g13
sg14
g11
sg15
g11
sg16
(lp918
I1
aI1
aI1
aI1
aI1
aI2
aI1
aI1
aI1
aI1
aI2
aI1
aI2
asg18
g25
sg20
g39
sg21
g11
sg22
g23
sg24
g25
sg26
g23
sa(dp919
g2
S'They believe that he cries.'
p920
sg4
g39
sg6
g7
sg8
g9
sg10
g11
sg12
g29
sg14
g11
sg15
g40
sg16
(lp921
I1
aI2
aI0
aI1
aI2
aI2
aI2
aI1
aI1
aI1
aI2
aI1
aI2
asg18
g42
sg20
g39
sg21
g40
sg22
g23
sg24
g25
sg26
g23
sa(dp922
g2
S'She believes and she sneezes.'
p923
sg4
g39
sg6
g7
sg8
g9
sg10
g11
sg12
g13
sg14
g11
sg15
g11
sg16
(lp924
I1
aI1
aI2
aI1
aI1
aI2
aI1
aI1
aI1
aI2
aI2
aI1
aI2
asg18
g19
sg20
g39
sg21
g11
sg22
g23
sg24
g19
sg26
g23
sa(dp925
g2
S'The women know that the women cry.'
p926
sg4
g5
sg6
g7
sg8
g9
sg10
g40
sg12
g29
sg14
g40
sg15
g40
sg16
(lp927
I2
aI2
aI2
aI1
aI2
aI2
aI2
aI2
aI2
aI2
aI2
aI2
aI2
asg18
g19
sg20
g5
sg21
g40
sg22
g23
sg24
g19
sg26
g23
sa(dp928
g2
S'They believe and he cries.'
p929
sg4
g39
sg6
g7
sg8
g9
sg10
g11
sg12
g13
sg14
g11
sg15
g40
sg16
(lp930
I1
aI2
aI0
aI1
aI2
aI2
aI1
aI1
aI1
aI1
aI2
aI1
aI2
asg18
g42
sg20
g39
sg21
g40
sg22
g23
sg24
g25
sg26
g23
sa(dp931
g2
S'They know and the girl cries.'
p932
sg4
g5
sg6
g7
sg8
g9
sg10
g11
sg12
g13
sg14
g11
sg15
g40
sg16
(lp933
I1
aI2
aI0
aI1
aI2
aI2
aI1
aI2
aI1
aI2
aI2
aI1
aI2
asg18
g42
sg20
g39
sg21
g40
sg22
g23
sg24
g19
sg26
g23
sa(dp934
g2
S'She knows and he sneezes.'
p935
sg4
g39
sg6
g7
sg8
g9
sg10
g11
sg12
g13
sg14
g11
sg15
g11
sg16
(lp936
I1
aI1
aI2
aI1
aI1
aI2
aI1
aI1
aI1
aI1
aI2
aI1
aI2
asg18
g19
sg20
g39
sg21
g11
sg22
g23
sg24
g25
sg26
g23
sa(dp937
g2
S'They think that the girl cries.'
p938
sg4
g5
sg6
g7
sg8
g9
sg10
g11
sg12
g29
sg14
g11
sg15
g40
sg16
(lp939
I1
aI2
aI0
aI1
aI2
aI2
aI2
aI2
aI1
aI2
aI2
aI1
aI2
asg18
g42
sg20
g39
sg21
g40
sg22
g23
sg24
g19
sg26
g23
sa(dp940
g2
S'They think that the woman cries.'
p941
sg4
g5
sg6
g7
sg8
g9
sg10
g11
sg12
g29
sg14
g11
sg15
g40
sg16
(lp942
I1
aI2
aI0
aI1
aI2
aI2
aI2
aI2
aI1
aI2
aI2
aI1
aI2
asg18
g42
sg20
g39
sg21
g40
sg22
g23
sg24
g19
sg26
g23
sa(dp943
g2
S'The women think that the women sneeze.'
p944
sg4
g5
sg6
g7
sg8
g9
sg10
g40
sg12
g29
sg14
g40
sg15
g40
sg16
(lp945
I2
aI2
aI2
aI1
aI2
aI2
aI2
aI2
aI2
aI2
aI2
aI2
aI2
asg18
g19
sg20
g5
sg21
g40
sg22
g23
sg24
g19
sg26
g23
sa(dp946
g2
S'They believe that the men sneeze.'
p947
sg4
g5
sg6
g7
sg8
g9
sg10
g40
sg12
g29
sg14
g40
sg15
g40
sg16
(lp948
I1
aI2
aI0
aI1
aI2
aI2
aI2
aI2
aI2
aI1
aI2
aI2
aI2
asg18
g42
sg20
g39
sg21
g40
sg22
g23
sg24
g25
sg26
g23
sa(dp949
g2
S'They know that the men sneeze.'
p950
sg4
g5
sg6
g7
sg8
g9
sg10
g40
sg12
g29
sg14
g40
sg15
g40
sg16
(lp951
I1
aI2
aI0
aI1
aI2
aI2
aI2
aI2
aI2
aI1
aI2
aI2
aI2
asg18
g42
sg20
g39
sg21
g40
sg22
g23
sg24
g25
sg26
g23
sa(dp952
g2
S'They think that the boys sneeze.'
p953
sg4
g5
sg6
g7
sg8
g9
sg10
g40
sg12
g29
sg14
g40
sg15
g40
sg16
(lp954
I1
aI2
aI0
aI1
aI2
aI2
aI2
aI2
aI2
aI1
aI2
aI2
aI2
asg18
g42
sg20
g39
sg21
g40
sg22
g23
sg24
g25
sg26
g23
sa(dp955
g2
S'He knows and she sneezes.'
p956
sg4
g39
sg6
g7
sg8
g9
sg10
g11
sg12
g13
sg14
g11
sg15
g11
sg16
(lp957
I1
aI1
aI1
aI1
aI1
aI2
aI1
aI1
aI1
aI2
aI2
aI1
aI2
asg18
g25
sg20
g39
sg21
g11
sg22
g23
sg24
g19
sg26
g23
sa(dp958
g2
S'They think that she cries.'
p959
sg4
g39
sg6
g7
sg8
g9
sg10
g11
sg12
g29
sg14
g11
sg15
g40
sg16
(lp960
I1
aI2
aI0
aI1
aI2
aI2
aI2
aI1
aI1
aI2
aI2
aI1
aI2
asg18
g42
sg20
g39
sg21
g40
sg22
g23
sg24
g19
sg26
g23
sa(dp961
g2
S'They know that the boy sneezes.'
p962
sg4
g5
sg6
g7
sg8
g9
sg10
g11
sg12
g29
sg14
g11
sg15
g40
sg16
(lp963
I1
aI2
aI0
aI1
aI2
aI2
aI2
aI2
aI1
aI1
aI2
aI1
aI2
asg18
g42
sg20
g39
sg21
g40
sg22
g23
sg24
g25
sg26
g23
sa(dp964
g2
S'They think that he sneezes.'
p965
sg4
g39
sg6
g7
sg8
g9
sg10
g11
sg12
g29
sg14
g11
sg15
g40
sg16
(lp966
I1
aI2
aI0
aI1
aI2
aI2
aI2
aI1
aI1
aI1
aI2
aI1
aI2
asg18
g42
sg20
g39
sg21
g40
sg22
g23
sg24
g25
sg26
g23
sa(dp967
g2
S'They think and the girl sneezes.'
p968
sg4
g5
sg6
g7
sg8
g9
sg10
g11
sg12
g13
sg14
g11
sg15
g40
sg16
(lp969
I1
aI2
aI0
aI1
aI2
aI2
aI1
aI2
aI1
aI2
aI2
aI1
aI2
asg18
g42
sg20
g39
sg21
g40
sg22
g23
sg24
g19
sg26
g23
sa(dp970
g2
S'She believes and the boys sneeze.'
p971
sg4
g5
sg6
g7
sg8
g9
sg10
g40
sg12
g13
sg14
g40
sg15
g11
sg16
(lp972
I1
aI1
aI2
aI1
aI1
aI2
aI1
aI2
aI2
aI1
aI2
aI2
aI2
asg18
g19
sg20
g39
sg21
g11
sg22
g23
sg24
g25
sg26
g23
sa(dp973
g2
S'They believe that she sneezes.'
p974
sg4
g39
sg6
g7
sg8
g9
sg10
g11
sg12
g29
sg14
g11
sg15
g40
sg16
(lp975
I1
aI2
aI0
aI1
aI2
aI2
aI2
aI1
aI1
aI2
aI2
aI1
aI2
asg18
g42
sg20
g39
sg21
g40
sg22
g23
sg24
g19
sg26
g23
sa(dp976
g2
S'They know and the women sneeze.'
p977
sg4
g5
sg6
g7
sg8
g9
sg10
g40
sg12
g13
sg14
g40
sg15
g40
sg16
(lp978
I1
aI2
aI0
aI1
aI2
aI2
aI1
aI2
aI2
aI2
aI2
aI2
aI2
asg18
g42
sg20
g39
sg21
g40
sg22
g23
sg24
g19
sg26
g23
sa(dp979
g2
S'They know and they cry.'
p980
sg4
g39
sg6
g7
sg8
g9
sg10
g40
sg12
g13
sg14
g40
sg15
g40
sg16
(lp981
I1
aI2
aI0
aI1
aI2
aI2
aI1
aI1
aI2
aI0
aI2
aI2
aI2
asg18
g42
sg20
g39
sg21
g40
sg22
g23
sg24
g42
sg26
g23
sa(dp982
g2
S'The women know and they sneeze.'
p983
sg4
g39
sg6
g7
sg8
g9
sg10
g40
sg12
g13
sg14
g40
sg15
g40
sg16
(lp984
I2
aI2
aI2
aI1
aI2
aI2
aI1
aI1
aI2
aI0
aI2
aI2
aI2
asg18
g19
sg20
g5
sg21
g40
sg22
g23
sg24
g42
sg26
g23
sa(dp985
g2
S'They think and the girl cries.'
p986
sg4
g5
sg6
g7
sg8
g9
sg10
g11
sg12
g13
sg14
g11
sg15
g40
sg16
(lp987
I1
aI2
aI0
aI1
aI2
aI2
aI1
aI2
aI1
aI2
aI2
aI1
aI2
asg18
g42
sg20
g39
sg21
g40
sg22
g23
sg24
g19
sg26
g23
sa(dp988
g2
S'The women know and the woman cries.'
p989
sg4
g5
sg6
g7
sg8
g9
sg10
g11
sg12
g13
sg14
g11
sg15
g40
sg16
(lp990
I2
aI2
aI2
aI1
aI2
aI2
aI1
aI2
aI1
aI2
aI2
aI1
aI2
asg18
g19
sg20
g5
sg21
g40
sg22
g23
sg24
g19
sg26
g23
sa(dp991
g2
S'The women know and they cry.'
p992
sg4
g39
sg6
g7
sg8
g9
sg10
g40
sg12
g13
sg14
g40
sg15
g40
sg16
(lp993
I2
aI2
aI2
aI1
aI2
aI2
aI1
aI1
aI2
aI0
aI2
aI2
aI2
asg18
g19
sg20
g5
sg21
g40
sg22
g23
sg24
g42
sg26
g23
sa(dp994
g2
S'They believe and the women sneeze.'
p995
sg4
g5
sg6
g7
sg8
g9
sg10
g40
sg12
g13
sg14
g40
sg15
g40
sg16
(lp996
I1
aI2
aI0
aI1
aI2
aI2
aI1
aI2
aI2
aI2
aI2
aI2
aI2
asg18
g42
sg20
g39
sg21
g40
sg22
g23
sg24
g19
sg26
g23
sa(dp997
g2
S'They think and he cries.'
p998
sg4
g39
sg6
g7
sg8
g9
sg10
g11
sg12
g13
sg14
g11
sg15
g40
sg16
(lp999
I1
aI2
aI0
aI1
aI2
aI2
aI1
aI1
aI1
aI1
aI2
aI1
aI2
asg18
g42
sg20
g39
sg21
g40
sg22
g23
sg24
g25
sg26
g23
sa(dp1000
g2
S'They know and she sneezes.'
p1001
sg4
g39
sg6
g7
sg8
g9
sg10
g11
sg12
g13
sg14
g11
sg15
g40
sg16
(lp1002
I1
aI2
aI0
aI1
aI2
aI2
aI1
aI1
aI1
aI2
aI2
aI1
aI2
asg18
g42
sg20
g39
sg21
g40
sg22
g23
sg24
g19
sg26
g23
sa(dp1003
g2
S'They think that the women cry.'
p1004
sg4
g5
sg6
g7
sg8
g9
sg10
g40
sg12
g29
sg14
g40
sg15
g40
sg16
(lp1005
I1
aI2
aI0
aI1
aI2
aI2
aI2
aI2
aI2
aI2
aI2
aI2
aI2
asg18
g42
sg20
g39
sg21
g40
sg22
g23
sg24
g19
sg26
g23
sa(dp1006
g2
S'They know that she cries.'
p1007
sg4
g39
sg6
g7
sg8
g9
sg10
g11
sg12
g29
sg14
g11
sg15
g40
sg16
(lp1008
I1
aI2
aI0
aI1
aI2
aI2
aI2
aI1
aI1
aI2
aI2
aI1
aI2
asg18
g42
sg20
g39
sg21
g40
sg22
g23
sg24
g19
sg26
g23
sa(dp1009
g2
S'They believe that the women sneeze.'
p1010
sg4
g5
sg6
g7
sg8
g9
sg10
g40
sg12
g29
sg14
g40
sg15
g40
sg16
(lp1011
I1
aI2
aI0
aI1
aI2
aI2
aI2
aI2
aI2
aI2
aI2
aI2
aI2
asg18
g42
sg20
g39
sg21
g40
sg22
g23
sg24
g19
sg26
g23
sa(dp1012
g2
S'She knows that she sneezes.'
p1013
sg4
g39
sg6
g7
sg8
g9
sg10
g11
sg12
g29
sg14
g11
sg15
g11
sg16
(lp1014
I1
aI1
aI2
aI1
aI1
aI2
aI2
aI1
aI1
aI2
aI2
aI1
aI2
asg18
g19
sg20
g39
sg21
g11
sg22
g23
sg24
g19
sg26
g23
sa(dp1015
g2
S'They believe and she cries.'
p1016
sg4
g39
sg6
g7
sg8
g9
sg10
g11
sg12
g13
sg14
g11
sg15
g40
sg16
(lp1017
I1
aI2
aI0
aI1
aI2
aI2
aI1
aI1
aI1
aI2
aI2
aI1
aI2
asg18
g42
sg20
g39
sg21
g40
sg22
g23
sg24
g19
sg26
g23
sa(dp1018
g2
S'They believe that he sneezes.'
p1019
sg4
g39
sg6
g7
sg8
g9
sg10
g11
sg12
g29
sg14
g11
sg15
g40
sg16
(lp1020
I1
aI2
aI0
aI1
aI2
aI2
aI2
aI1
aI1
aI1
aI2
aI1
aI2
asg18
g42
sg20
g39
sg21
g40
sg22
g23
sg24
g25
sg26
g23
sa(dp1021
g2
S'They think that the women sneeze.'
p1022
sg4
g5
sg6
g7
sg8
g9
sg10
g40
sg12
g29
sg14
g40
sg15
g40
sg16
(lp1023
I1
aI2
aI0
aI1
aI2
aI2
aI2
aI2
aI2
aI2
aI2
aI2
aI2
asg18
g42
sg20
g39
sg21
g40
sg22
g23
sg24
g19
sg26
g23
sa(dp1024
g2
S'They believe that they cry.'
p1025
sg4
g39
sg6
g7
sg8
g9
sg10
g40
sg12
g29
sg14
g40
sg15
g40
sg16
(lp1026
I1
aI2
aI0
aI1
aI2
aI2
aI2
aI1
aI2
aI0
aI2
aI2
aI2
asg18
g42
sg20
g39
sg21
g40
sg22
g23
sg24
g42
sg26
g23
sa(dp1027
g2
S'They think that they sneeze.'
p1028
sg4
g39
sg6
g7
sg8
g9
sg10
g40
sg12
g29
sg14
g40
sg15
g40
sg16
(lp1029
I1
aI2
aI0
aI1
aI2
aI2
aI2
aI1
aI2
aI0
aI2
aI2
aI2
asg18
g42
sg20
g39
sg21
g40
sg22
g23
sg24
g42
sg26
g23
sa(dp1030
g2
S'They think that they cry.'
p1031
sg4
g39
sg6
g7
sg8
g9
sg10
g40
sg12
g29
sg14
g40
sg15
g40
sg16
(lp1032
I1
aI2
aI0
aI1
aI2
aI2
aI2
aI1
aI2
aI0
aI2
aI2
aI2
asg18
g42
sg20
g39
sg21
g40
sg22
g23
sg24
g42
sg26
g23
sa(dp1033
g2
S'They think and she cries.'
p1034
sg4
g39
sg6
g7
sg8
g9
sg10
g11
sg12
g13
sg14
g11
sg15
g40
sg16
(lp1035
I1
aI2
aI0
aI1
aI2
aI2
aI1
aI1
aI1
aI2
aI2
aI1
aI2
asg18
g42
sg20
g39
sg21
g40
sg22
g23
sg24
g19
sg26
g23
sa.