(dp0
S'they'
p1
S'PRP'
p2
sS'cried'
p3
S'VB'
p4
sS'dance'
p5
g4
sS'coming'
p6
g4
sS'discovered'
p7
g4
sS'cries'
p8
S'NNS'
p9
sS'hugged'
p10
g4
sS'bikes'
p11
S'NNS'
p12
sS'sleep'
p13
g4
sS'find'
p14
g4
sS'appeared'
p15
g4
sS'speak'
p16
g4
sS'crawls'
p17
g4
sS'her'
p18
S'PRP'
p19
sS'remains'
p20
g4
sS'sneeze'
p21
g4
sS'caught'
p22
g4
sS'girls'
p23
S'NNS'
p24
sS'him'
p25
S'PRP'
p26
sS'tickle'
p27
g4
sS'whom'
p28
S'WP'
p29
sS'crying'
p30
g4
sS'blooms'
p31
g4
sS'winks'
p32
g4
sS'showered'
p33
g4
sS'women'
p34
S'NNS'
p35
sS'was'
p36
g4
sS'kick'
p37
g4
sS'loved'
p38
g4
sS'scratched'
p39
g4
sS'do'
p40
g4
sS'them'
p41
S'PRP'
p42
sS'hug'
p43
g4
sS'excercised'
p44
g4
sS'laughs'
p45
g4
sS'coughing'
p46
g4
sS'hugs'
p47
g4
sS'burn'
p48
g4
sS'boys'
p49
S'NNS'
p50
sS'were'
p51
g4
sS'hear'
p52
g4
sS'kiss'
p53
g4
sS'cook'
p54
S'NN'
p55
sS'flowers'
p56
S'NNS'
p57
sS'undressed'
p58
g4
sS'eat'
p59
g4
sS'coughed'
p60
g4
sS'he'
p61
S'PRP'
p62
sS'play'
p63
g4
sS'mushrooms'
p64
S'NNS'
p65
sS'snore'
p66
g4
sS'salad'
p67
S'NN'
p68
sS'pushed'
p69
g4
sS'did'
p70
g4
sS'warned'
p71
g4
sS'sneezed'
p72
g4
sS'sandwich'
p73
S'NN'
p74
sS'will'
p75
S'MD'
p76
sS'guessed'
p77
g4
sS'clowns'
p78
S'NNS'
p79
sS'friend'
p80
S'NN'
p81
sS'crawled'
p82
g4
sS'cake'
p83
S'NN'
p84
sS'served'
p85
g4
sS'sneezes'
p86
g4
sS'arrive'
p87
g4
sS'meal'
p88
S'NN'
p89
sS'overcooked'
p90
g4
sS'hears'
p91
g4
sS'remained'
p92
g4
sS'is'
p93
g4
sS'winked'
p94
g4
sS'it'
p95
S'PRP'
p96
sS'drive'
p97
g4
sS'chef'
p98
S'NN'
p99
sS'heard'
p100
g4
sS'woman'
p101
S'NN'
p102
sS'tasty'
p103
S'JJ'
p104
sS'together'
p105
S'RB'
p106
sS'stealing'
p107
g4
sS'girl'
p108
S'NN'
p109
sS'kissed'
p110
g4
sS'saw'
p111
g4
sS'heared'
p112
g4
sS'what'
p113
S'WP'
p114
sS'said'
p115
g4
sS'appear'
p116
g4
sS'collapses'
p117
g4
sS'jumped'
p118
g4
sS'that'
p119
S'IN'
p120
sS'washed'
p121
g4
sS'shaved'
p122
g4
sS'who'
p123
S'WP'
p124
sS'does'
p125
g4
sS'actors'
p126
S'NNS'
p127
sS'laughed'
p128
g4
sS'grandpa'
p129
S'NN'
p130
sS'streched'
p131
g4
sS'vanished'
p132
g4
sS'smell'
p133
g4
sS'collapsed'
p134
g4
sS'drink'
p135
g4
sS'she'
p136
S'PRP'
p137
sS'pinched'
p138
g4
sS'smiles'
p139
g4
sS'we'
p140
S'PRP'
p141
sS'arrives'
p142
g4
sS'winking'
p143
g4
sS'smelled'
p144
g4
sS'jumps'
p145
g4
sS'men'
p146
S'NNS'
p147
sS'ball'
p148
S'NN'
p149
sS'disappeared'
p150
g4
sS'believed'
p151
g4
sS'host'
p152
S'NN'
p153
sS'fell'
p154
g4
sS'arrived'
p155
g4
sS'scorned'
p156
g4
sS'grapes'
p157
S'NNS'
p158
sS'found'
p159
g4
sS'smiled'
p160
g4
sS'sing'
p161
g4
sS'cough'
p162
g4
sS'revealed'
p163
g4
sS'boy'
p164
S'NN'
p165
sS'ate'
p166
g4
sS'kicked'
p167
g4
sS'healthy'
p168
S'JJ'
p169
sS'bloomed'
p170
g4
sS'tickles'
p171
g4
sS'eats'
p172
g4
sS'sliced'
p173
g4
sS'wink'
p174
g4
sS'vanish'
p175
g4
sS'prepared'
p176
g4
sS'dressed'
p177
g4
sS'falls'
p178
g4
sS'the'
p179
S'DT'
p180
sS'disappears'
p181
g4
s.